文件：ncr.c        编译器版本 HGASM 0202 页次1


   1  0000              ; Generated by holtek-gcc v3.19, Mon Oct 21 15:28:05 2019
   2  0000              ; 
   3  0000              ; Configuration:
   4  0000              ;       with long instruction
   5  0000              ;       Single ROM, Multi-RAM
   6  0000              ;       bits_per_rom_unit:16
   7  0000              ;       with mp1
   8  0000              ;       with tbhp, address(0x9)
   9  0000              ;          Use tabrd-const
  10  0000              ;       
  11  0000              ; SFR address of long-instruction arch:
  12  0000              ;    mp0 = -1,1,0
  13  0000              ;    mp1 = 4,3,2
  14  0000              ;    mp2 = 14,13,12
  15  0000              ;    tbp = 9,7,8
  16  0000              ;    acc = 5
  17  0000              ;    pcl = 6
  18  0000              ;    status = 10
  19  0000              ;    bp = 11
  20  0000              ;    intc = 17
  21  0000              ;       
  22  0000              ;       
  23  0000              ; use 'tabrdc' instead of 'tabrd'
  24  0000              ;       
  25  0000              
  26  0000              #pragma translator "holtek-gcc 4.6.4" "3.19" "build 20130711"
  27  0000              ; Rebuild 115
  28  0000              
  29  0000              ir equ [2]
  30  0000              mp equ [3]
  31  0000              sbp equ [4]
  32  0000              acc equ [5]
  33  0000              bp equ [11]
  34  0000              tblp equ [7]
  35  0000              tbhp equ [9]
  36  0000              status equ [10]
  37  0000              c equ [10].0
  38  0000              ac equ [10].1
  39  0000              z equ [10].2
  40  0000              ov equ [10].3
  41  0000              cz equ [10].6
  42  0000              sc equ [10].7
  43  0000              intc equ [17]
  44  0000              
  45  0000              extern ra:byte
  46  0000              extern rb:byte
  47  0000              extern rc:byte
  48  0000              extern rd:byte
  49  0000              extern re:byte
  50  0000              extern rf:byte
  51  0000              extern rg:byte
  52  0000              extern rh:byte
  53  0000              extern _Crom2Prom:near
  54  0000              extern _Crom2PromNext:near
  55  0000              
  56  0000              RAMBANK 0 @BITDATASEC, @BITDATASEC1
  57  0000              @HCCINIT	.section 'data'
  58  0000              @HCCINIT0	.section 'data'
  59  0000              @BITDATASEC	 .section 'data'
文件：ncr.ASM      编译器版本 HGASM 0202 页次2

  60  0000              @BITDATASEC1	 .section 'data'
  61  0000              
  62  0000              #pragma debug scope 1 1
  63  0000              	extern __DELAY3:near
  64  0000              	extern __DELAYX3:near
  65  0000              	extern __DELAYX6:near
  66  0000              	extern __DELAYY5:near
  67  0000              	extern __DELAYY3:near
  68  0000              	extern _builtin_holtek_delay_2:byte
  69  0000              ___wdtc equ [26]
  70  0000              ___scc equ [43]
  71  0000              public _reset
  72  0000              #pragma debug scope 2 1

  13  0000              #line 13 "G:\workspace\client\利仁电气\software\NCR\ncr\ncr.c"
  13  0000              _reset .section 'code'
  13  0000              _reset proc
  14  0000              #line 14 "G:\workspace\client\利仁电气\software\NCR\ncr\ncr.c"
  14  0000  0F50        	mov a,80
  14  0001  009A        	mov [26],a
  15  0002              #line 15 "G:\workspace\client\利仁电气\software\NCR\ncr\ncr.c"
  15  0002  34AB        	clr [43].1
  16  0003              #line 16 "G:\workspace\client\利仁电气\software\NCR\ncr\ncr.c"
  16  0003  342B        	clr [43].0
  17  0004              #line 17 "G:\workspace\client\利仁电气\software\NCR\ncr\ncr.c"
  17  0004              ;# 17 "G:\workspace\client\利仁电气\software\NCR\ncr\ncr.c" 1
  17  0004  0002        	HALT
  17  0005              _L2:
  17  0005  2800     R  	jmp _L2
  17  0006  0003        	ret
  17  0007              _reset endp
  17  0007              #line 17 "G:\workspace\client\利仁电气\software\NCR\ncr\ncr.c"
  17  0007              #pragma debug scope 1 1
  17  0007              public _gotoSleepMode
  17  0007              #pragma debug scope 3 1
  24  0007              #line 24 "G:\workspace\client\利仁电气\software\NCR\ncr\ncr.c"
  24  0000              _gotoSleepMode .section 'code'
  24  0000              _gotoSleepMode proc
  25  0000              #line 25 "G:\workspace\client\利仁电气\software\NCR\ncr\ncr.c"
  25  0000  2000     E  	call _swGpioClear
  26  0001              #line 26 "G:\workspace\client\利仁电气\software\NCR\ncr\ncr.c"
  26  0001  0F52        	mov a,82
  26  0002  009A        	mov [26],a
  27  0003              #line 27 "G:\workspace\client\利仁电气\software\NCR\ncr\ncr.c"
  27  0003  34AB        	clr [43].1
  28  0004              #line 28 "G:\workspace\client\利仁电气\software\NCR\ncr\ncr.c"
  28  0004  342B        	clr [43].0
  29  0005              #line 29 "G:\workspace\client\利仁电气\software\NCR\ncr\ncr.c"
  29  0005              ;# 29 "G:\workspace\client\利仁电气\software\NCR\ncr\ncr.c" 1
  29  0005  0002        	HALT
  29  0006              _L5:
  29  0006  2800     R  	jmp _L5
  29  0007  0003        	ret
  29  0008              _gotoSleepMode endp
  29  0008              #line 29 "G:\workspace\client\利仁电气\software\NCR\ncr\ncr.c"
  29  0008              #pragma debug scope 1 1
  29  0008              _ncr equ [128]
  29  0008              ___pc equ [40]
  29  0008              public _statusLEDFlush
  29  0008              #pragma debug scope 4 1
文件：ncr.c        编译器版本 HGASM 0202 页次3

  33  0008              #line 33 "G:\workspace\client\利仁电气\software\NCR\ncr\ncr.c"
  33  0000              _statusLEDFlush .section 'code'
  33  0000              _statusLEDFlush proc
  34  0000              #line 34 "G:\workspace\client\利仁电气\software\NCR\ncr\ncr.c"
  34  0000  5E05        	snz [133]
  34  0001  2800     R  	jmp _L9
  41  0002              #line 41 "G:\workspace\client\利仁电气\software\NCR\ncr\ncr.c"
  41  0002  3028        	set [40].0
  42  0003              #line 42 "G:\workspace\client\利仁电气\software\NCR\ncr\ncr.c"
  42  0003  34A8        	clr [40].1
  43  0004              #line 43 "G:\workspace\client\利仁电气\software\NCR\ncr\ncr.c"
  43  0004  0F28        	mov a,40
  43  0005  0080     E  	mov _delay_2[0],a
  43  0006  1F00     E  	clr _delay_2[1]
  43  0007  1F00     E  	clr _delay_2[2]
  43  0008  1F00     E  	clr _delay_2[3]
  43  0009  2000     E  	call _delay
  43  000A              _L9:
  44  000A              #line 44 "G:\workspace\client\利仁电气\software\NCR\ncr\ncr.c"
  44  000A  30A8        	set [40].1
  45  000B              #line 45 "G:\workspace\client\利仁电气\software\NCR\ncr\ncr.c"
  45  000B  5F00        	clr [128]
  45  000C  5F01        	clr [129]
  47  000D              #line 47 "G:\workspace\client\利仁电气\software\NCR\ncr\ncr.c"
  47  000D              ;# 47 "G:\workspace\client\利仁电气\software\NCR\ncr\ncr.c" 1
  47  000D  0001        	clr wdt
  47  000E  0003        	ret
  47  000F              _statusLEDFlush endp
  47  000F              #line 47 "G:\workspace\client\利仁电气\software\NCR\ncr\ncr.c"
  47  000F              #pragma debug scope 1 1
  47  000F              ___pcc equ [41]
  47  000F              public _holdRestButtonPush
  47  000F              #pragma debug scope 5 1
  51  000F              #line 51 "G:\workspace\client\利仁电气\software\NCR\ncr\ncr.c"
  51  0000              _holdRestButtonPush .section 'code'
  51  0000              _holdRestButtonPush proc
  52  0000              #line 52 "G:\workspace\client\利仁电气\software\NCR\ncr\ncr.c"
  52  0000  0FF4        	mov a,-12
  52  0001  0080     E  	mov _delay_2[0],a
  52  0002  0F01        	mov a,1
  52  0003  0080     E  	mov _delay_2[1],a
  52  0004  1F00     E  	clr _delay_2[2]
  52  0005  1F00     E  	clr _delay_2[3]
  52  0006  2000     E  	call _delay
  53  0007              #line 53 "G:\workspace\client\利仁电气\software\NCR\ncr\ncr.c"
  53  0007  36A9        	clr [41].5
  54  0008              #line 54 "G:\workspace\client\利仁电气\software\NCR\ncr\ncr.c"
  54  0008  0F05        	mov a,5
  54  0009  0080     E  	mov _delay_2[0],a
  54  000A  1F00     E  	clr _delay_2[1]
  54  000B  1F00     E  	clr _delay_2[2]
  54  000C  1F00     E  	clr _delay_2[3]
  54  000D  2000     E  	call _delay
  55  000E              #line 55 "G:\workspace\client\利仁电气\software\NCR\ncr\ncr.c"
  55  000E  36A8        	clr [40].5
  56  000F              #line 56 "G:\workspace\client\利仁电气\software\NCR\ncr\ncr.c"
  56  000F  0FC8        	mov a,-56
  56  0010  0080     E  	mov _delay_2[0],a
  56  0011  1F00     E  	clr _delay_2[1]
  56  0012  1F00     E  	clr _delay_2[2]
文件：ncr.c        编译器版本 HGASM 0202 页次4

  56  0013  1F00     E  	clr _delay_2[3]
  56  0014  2000     E  	call _delay
  57  0015              #line 57 "G:\workspace\client\利仁电气\software\NCR\ncr\ncr.c"
  57  0015  32A8        	set [40].5
  58  0016              #line 58 "G:\workspace\client\利仁电气\software\NCR\ncr\ncr.c"
  58  0016  0F58        	mov a,88
  58  0017  0080     E  	mov _delay_2[0],a
  58  0018  0F02        	mov a,2
  58  0019  0080     E  	mov _delay_2[1],a
  58  001A  1F00     E  	clr _delay_2[2]
  58  001B  1F00     E  	clr _delay_2[3]
  58  001C  2000     E  	call _delay
  58  001D  0003        	ret
  58  001E              _holdRestButtonPush endp
  58  001E              #line 58 "G:\workspace\client\利仁电气\software\NCR\ncr\ncr.c"
  58  001E              #pragma debug scope 1 1
  58  001E              ___pa equ [20]
  58  001E              public _lose
  58  001E              #pragma debug scope 6 1
  70  001E              #line 70 "G:\workspace\client\利仁电气\software\NCR\ncr\ncr.c"
  70  0000              _lose .section 'code'
  70  0000              _lose proc
  70  0000  0008[           local _lose_2 db 8 dup(?)	; 0,8
            00
            ]
  71  0008              #line 71 "G:\workspace\client\利仁电气\software\NCR\ncr\ncr.c"
  71  0000  4702        	mov a,[130]
  71  0001  0080     E  	mov re,a
  75  0002              #line 75 "G:\workspace\client\利仁电气\software\NCR\ncr\ncr.c"
  75  0002  3028        	set [40].0
  76  0003              #line 76 "G:\workspace\client\利仁电气\software\NCR\ncr\ncr.c"
  76  0003  30A8        	set [40].1
  76  0004  0700     R  	mov a,_chxTemp[0]
  76  0005  0080     E  	mov rb,a
  77  0006              #line 77 "G:\workspace\client\利仁电气\software\NCR\ncr\ncr.c"
  77  0006  3E94        	sz [20].5
  77  0007  2800     R  	jmp _L12
  78  0008              #line 78 "G:\workspace\client\利仁电气\software\NCR\ncr\ncr.c"
  78  0008  3C00     E  	sz rb.7
  78  0009  2800     R  	jmp _L14
  79  000A              #line 79 "G:\workspace\client\利仁电气\software\NCR\ncr\ncr.c"
  79  000A  0700     R  	mov a,_systemTicksTimeStamp[0]
  79  000B  0080     R  	mov _ch1TimeStamp[0],a
  79  000C  0700     R  	mov a,_systemTicksTimeStamp[1]
  79  000D  0080     R  	mov _ch1TimeStamp[1],a
  79  000E  0700     R  	mov a,_systemTicksTimeStamp[2]
  79  000F  0080     R  	mov _ch1TimeStamp[2],a
  79  0010  0700     R  	mov a,_systemTicksTimeStamp[3]
  79  0011  0080     R  	mov _ch1TimeStamp[3],a
  80  0012              #line 80 "G:\workspace\client\利仁电气\software\NCR\ncr\ncr.c"
  80  0012  3000     E  	set rb.7
  80  0013  0700     E  	mov a,rb
  80  0014  0080     R  	mov _chxTemp[0],a
  80  0015  2800     R  	jmp _L14
  80  0016              _L12:
  83  0016              #line 83 "G:\workspace\client\利仁电气\software\NCR\ncr\ncr.c"
  83  0016  3800     E  	snz rb.7
  83  0017  2800     R  	jmp _L14
  84  0018              #line 84 "G:\workspace\client\利仁电气\software\NCR\ncr\ncr.c"
  84  0018  3400     E  	clr rb.7
文件：ncr.c        编译器版本 HGASM 0202 页次5

  84  0019  0700     E  	mov a,rb
  84  001A  0080     R  	mov _chxTemp[0],a
  85  001B              #line 85 "G:\workspace\client\利仁电气\software\NCR\ncr\ncr.c"
  85  001B  0700     R  	mov a,_systemTicksTimeStamp[0]
  85  001C  0200     R  	sub a,_ch1TimeStamp[0]
  85  001D  0080     E  	mov ra,a
  85  001E  0700     R  	mov a,_systemTicksTimeStamp[1]
  85  001F  1200     R  	sbc a,_ch1TimeStamp[1]
  85  0020  0080     E  	mov rb,a
  85  0021  0700     R  	mov a,_systemTicksTimeStamp[2]
  85  0022  1200     R  	sbc a,_ch1TimeStamp[2]
  85  0023  0080     E  	mov rc,a
  85  0024  0700     R  	mov a,_systemTicksTimeStamp[3]
  85  0025  1200     R  	sbc a,_ch1TimeStamp[3]
  85  0026  0080     E  	mov rd,a
  85  0027  0700     E  	mov a,ra
  85  0028  0080     R  	mov _lose_2[4],a
  85  0029  0700     E  	mov a,rb
  85  002A  0080     R  	mov _lose_2[5],a
  85  002B  0700     E  	mov a,rc
  85  002C  0080     R  	mov _lose_2[6],a
  85  002D  0700     E  	mov a,rd
  85  002E  0080     R  	mov _lose_2[7],a
  86  002F              #line 86 "G:\workspace\client\利仁电气\software\NCR\ncr\ncr.c"
  86  002F  0FFD        	mov a,253
  86  0030  0380     E  	addm a,ra
  86  0031  0FFF        	mov a,255
  86  0032  1380     E  	adcm a,rb
  86  0033  1380     E  	adcm a,rc
  86  0034  1380     E  	adcm a,rd
  86  0035  0F10        	mov a,16
  86  0036  0200     E  	sub a,ra
  86  0037  0F00        	mov a,0
  86  0038  1200     E  	sbc a,rb
  86  0039  0F00        	mov a,0
  86  003A  1200     E  	sbc a,rc
  86  003B  0F00        	mov a,0
  86  003C  1200     E  	sbc a,rd
  86  003D  380A        	snz c
  86  003E  2800     R  	jmp _L16
  87  003F              #line 87 "G:\workspace\client\利仁电气\software\NCR\ncr\ncr.c"
  87  003F  7782        	clr [130].7
  87  0040  2800     R  	jmp _L14
  87  0041              _L16:
  88  0041              #line 88 "G:\workspace\client\利仁电气\software\NCR\ncr\ncr.c"
  88  0041  0F1E        	mov a,30
  88  0042  0200     R  	sub a,_lose_2[4]
  88  0043  0F00        	mov a,0
  88  0044  1200     R  	sbc a,_lose_2[5]
  88  0045  0F00        	mov a,0
  88  0046  1200     R  	sbc a,_lose_2[6]
  88  0047  0F00        	mov a,0
  88  0048  1200     R  	sbc a,_lose_2[7]
  88  0049  3C0A        	sz c
  88  004A  2800     R  	jmp _L14
  89  004B              #line 89 "G:\workspace\client\利仁电气\software\NCR\ncr\ncr.c"
  89  004B  7382        	set [130].7
  90  004C              #line 90 "G:\workspace\client\利仁电气\software\NCR\ncr\ncr.c"
  90  004C  3428        	clr [40].0
  91  004D              #line 91 "G:\workspace\client\利仁电气\software\NCR\ncr\ncr.c"
文件：ncr.c        编译器版本 HGASM 0202 页次6

  91  004D  34A8        	clr [40].1
  91  004E              _L14:
  96  004E              #line 96 "G:\workspace\client\利仁电气\software\NCR\ncr\ncr.c"
  96  004E  3028        	set [40].0
  97  004F              #line 97 "G:\workspace\client\利仁电气\software\NCR\ncr\ncr.c"
  97  004F  30A8        	set [40].1
  97  0050  0700     R  	mov a,_chxTemp[0]
  97  0051  0080     E  	mov rb,a
 100  0052              #line 100 "G:\workspace\client\利仁电气\software\NCR\ncr\ncr.c"
 100  0052  3E14        	sz [20].4
 100  0053  2800     R  	jmp _L17
 101  0054              #line 101 "G:\workspace\client\利仁电气\software\NCR\ncr\ncr.c"
 101  0054  3C00     E  	sz rb.6
 101  0055  2800     R  	jmp _L19
 102  0056              #line 102 "G:\workspace\client\利仁电气\software\NCR\ncr\ncr.c"
 102  0056  0700     R  	mov a,_systemTicksTimeStamp[0]
 102  0057  0080     R  	mov _ch2TimeStamp[0],a
 102  0058  0700     R  	mov a,_systemTicksTimeStamp[1]
 102  0059  0080     R  	mov _ch2TimeStamp[1],a
 102  005A  0700     R  	mov a,_systemTicksTimeStamp[2]
 102  005B  0080     R  	mov _ch2TimeStamp[2],a
 102  005C  0700     R  	mov a,_systemTicksTimeStamp[3]
 102  005D  0080     R  	mov _ch2TimeStamp[3],a
 103  005E              #line 103 "G:\workspace\client\利仁电气\software\NCR\ncr\ncr.c"
 103  005E  3000     E  	set rb.6
 103  005F  0700     E  	mov a,rb
 103  0060  0080     R  	mov _chxTemp[0],a
 103  0061  2800     R  	jmp _L19
 103  0062              _L17:
 106  0062              #line 106 "G:\workspace\client\利仁电气\software\NCR\ncr\ncr.c"
 106  0062  3800     E  	snz rb.6
 106  0063  2800     R  	jmp _L19
 107  0064              #line 107 "G:\workspace\client\利仁电气\software\NCR\ncr\ncr.c"
 107  0064  3400     E  	clr rb.6
 107  0065  0700     E  	mov a,rb
 107  0066  0080     R  	mov _chxTemp[0],a
 108  0067              #line 108 "G:\workspace\client\利仁电气\software\NCR\ncr\ncr.c"
 108  0067  0700     R  	mov a,_systemTicksTimeStamp[0]
 108  0068  0200     R  	sub a,_ch2TimeStamp[0]
 108  0069  0080     E  	mov ra,a
 108  006A  0700     R  	mov a,_systemTicksTimeStamp[1]
 108  006B  1200     R  	sbc a,_ch2TimeStamp[1]
 108  006C  0080     E  	mov rb,a
 108  006D  0700     R  	mov a,_systemTicksTimeStamp[2]
 108  006E  1200     R  	sbc a,_ch2TimeStamp[2]
 108  006F  0080     E  	mov rc,a
 108  0070  0700     R  	mov a,_systemTicksTimeStamp[3]
 108  0071  1200     R  	sbc a,_ch2TimeStamp[3]
 108  0072  0080     E  	mov rd,a
 108  0073  0700     E  	mov a,ra
 108  0074  0080     R  	mov _lose_2[4],a
 108  0075  0700     E  	mov a,rb
 108  0076  0080     R  	mov _lose_2[5],a
 108  0077  0700     E  	mov a,rc
 108  0078  0080     R  	mov _lose_2[6],a
 108  0079  0700     E  	mov a,rd
 108  007A  0080     R  	mov _lose_2[7],a
 109  007B              #line 109 "G:\workspace\client\利仁电气\software\NCR\ncr\ncr.c"
 109  007B  0FFD        	mov a,253
 109  007C  0380     E  	addm a,ra
文件：ncr.c        编译器版本 HGASM 0202 页次7

 109  007D  0FFF        	mov a,255
 109  007E  1380     E  	adcm a,rb
 109  007F  1380     E  	adcm a,rc
 109  0080  1380     E  	adcm a,rd
 109  0081  0F10        	mov a,16
 109  0082  0200     E  	sub a,ra
 109  0083  0F00        	mov a,0
 109  0084  1200     E  	sbc a,rb
 109  0085  0F00        	mov a,0
 109  0086  1200     E  	sbc a,rc
 109  0087  0F00        	mov a,0
 109  0088  1200     E  	sbc a,rd
 109  0089  380A        	snz c
 109  008A  2800     R  	jmp _L21
 110  008B              #line 110 "G:\workspace\client\利仁电气\software\NCR\ncr\ncr.c"
 110  008B  7702        	clr [130].6
 110  008C  2800     R  	jmp _L19
 110  008D              _L21:
 111  008D              #line 111 "G:\workspace\client\利仁电气\software\NCR\ncr\ncr.c"
 111  008D  0F1E        	mov a,30
 111  008E  0200     R  	sub a,_lose_2[4]
 111  008F  0F00        	mov a,0
 111  0090  1200     R  	sbc a,_lose_2[5]
 111  0091  0F00        	mov a,0
 111  0092  1200     R  	sbc a,_lose_2[6]
 111  0093  0F00        	mov a,0
 111  0094  1200     R  	sbc a,_lose_2[7]
 111  0095  3C0A        	sz c
 111  0096  2800     R  	jmp _L19
 112  0097              #line 112 "G:\workspace\client\利仁电气\software\NCR\ncr\ncr.c"
 112  0097  7302        	set [130].6
 113  0098              #line 113 "G:\workspace\client\利仁电气\software\NCR\ncr\ncr.c"
 113  0098  3428        	clr [40].0
 114  0099              #line 114 "G:\workspace\client\利仁电气\software\NCR\ncr\ncr.c"
 114  0099  34A8        	clr [40].1
 114  009A              _L19:
 118  009A              #line 118 "G:\workspace\client\利仁电气\software\NCR\ncr\ncr.c"
 118  009A  3028        	set [40].0
 119  009B              #line 119 "G:\workspace\client\利仁电气\software\NCR\ncr\ncr.c"
 119  009B  30A8        	set [40].1
 119  009C  0700     R  	mov a,_chxTemp[0]
 119  009D  0080     E  	mov rb,a
 124  009E              #line 124 "G:\workspace\client\利仁电气\software\NCR\ncr\ncr.c"
 124  009E  3D94        	sz [20].3
 124  009F  2800     R  	jmp _L22
 125  00A0              #line 125 "G:\workspace\client\利仁电气\software\NCR\ncr\ncr.c"
 125  00A0  3C00     E  	sz rb.5
 125  00A1  2800     R  	jmp _L24
 126  00A2              #line 126 "G:\workspace\client\利仁电气\software\NCR\ncr\ncr.c"
 126  00A2  0700     R  	mov a,_systemTicksTimeStamp[0]
 126  00A3  0080     R  	mov _ch3TimeStamp[0],a
 126  00A4  0700     R  	mov a,_systemTicksTimeStamp[1]
 126  00A5  0080     R  	mov _ch3TimeStamp[1],a
 126  00A6  0700     R  	mov a,_systemTicksTimeStamp[2]
 126  00A7  0080     R  	mov _ch3TimeStamp[2],a
 126  00A8  0700     R  	mov a,_systemTicksTimeStamp[3]
 126  00A9  0080     R  	mov _ch3TimeStamp[3],a
 127  00AA              #line 127 "G:\workspace\client\利仁电气\software\NCR\ncr\ncr.c"
 127  00AA  3000     E  	set rb.5
 127  00AB  0700     E  	mov a,rb
文件：ncr.c        编译器版本 HGASM 0202 页次8

 127  00AC  0080     R  	mov _chxTemp[0],a
 127  00AD  2800     R  	jmp _L24
 127  00AE              _L22:
 130  00AE              #line 130 "G:\workspace\client\利仁电气\software\NCR\ncr\ncr.c"
 130  00AE  3800     E  	snz rb.5
 130  00AF  2800     R  	jmp _L24
 131  00B0              #line 131 "G:\workspace\client\利仁电气\software\NCR\ncr\ncr.c"
 131  00B0  3400     E  	clr rb.5
 131  00B1  0700     E  	mov a,rb
 131  00B2  0080     R  	mov _chxTemp[0],a
 132  00B3              #line 132 "G:\workspace\client\利仁电气\software\NCR\ncr\ncr.c"
 132  00B3  0700     R  	mov a,_systemTicksTimeStamp[0]
 132  00B4  0200     R  	sub a,_ch3TimeStamp[0]
 132  00B5  0080     E  	mov ra,a
 132  00B6  0700     R  	mov a,_systemTicksTimeStamp[1]
 132  00B7  1200     R  	sbc a,_ch3TimeStamp[1]
 132  00B8  0080     E  	mov rb,a
 132  00B9  0700     R  	mov a,_systemTicksTimeStamp[2]
 132  00BA  1200     R  	sbc a,_ch3TimeStamp[2]
 132  00BB  0080     E  	mov rc,a
 132  00BC  0700     R  	mov a,_systemTicksTimeStamp[3]
 132  00BD  1200     R  	sbc a,_ch3TimeStamp[3]
 132  00BE  0080     E  	mov rd,a
 132  00BF  0700     E  	mov a,ra
 132  00C0  0080     R  	mov _lose_2[4],a
 132  00C1  0700     E  	mov a,rb
 132  00C2  0080     R  	mov _lose_2[5],a
 132  00C3  0700     E  	mov a,rc
 132  00C4  0080     R  	mov _lose_2[6],a
 132  00C5  0700     E  	mov a,rd
 132  00C6  0080     R  	mov _lose_2[7],a
 133  00C7              #line 133 "G:\workspace\client\利仁电气\software\NCR\ncr\ncr.c"
 133  00C7  0FFD        	mov a,253
 133  00C8  0380     E  	addm a,ra
 133  00C9  0FFF        	mov a,255
 133  00CA  1380     E  	adcm a,rb
 133  00CB  1380     E  	adcm a,rc
 133  00CC  1380     E  	adcm a,rd
 133  00CD  0F10        	mov a,16
 133  00CE  0200     E  	sub a,ra
 133  00CF  0F00        	mov a,0
 133  00D0  1200     E  	sbc a,rb
 133  00D1  0F00        	mov a,0
 133  00D2  1200     E  	sbc a,rc
 133  00D3  0F00        	mov a,0
 133  00D4  1200     E  	sbc a,rd
 133  00D5  380A        	snz c
 133  00D6  2800     R  	jmp _L26
 134  00D7              #line 134 "G:\workspace\client\利仁电气\software\NCR\ncr\ncr.c"
 134  00D7  7682        	clr [130].5
 134  00D8  2800     R  	jmp _L24
 134  00D9              _L26:
 135  00D9              #line 135 "G:\workspace\client\利仁电气\software\NCR\ncr\ncr.c"
 135  00D9  0F1E        	mov a,30
 135  00DA  0200     R  	sub a,_lose_2[4]
 135  00DB  0F00        	mov a,0
 135  00DC  1200     R  	sbc a,_lose_2[5]
 135  00DD  0F00        	mov a,0
 135  00DE  1200     R  	sbc a,_lose_2[6]
 135  00DF  0F00        	mov a,0
文件：ncr.c        编译器版本 HGASM 0202 页次9

 135  00E0  1200     R  	sbc a,_lose_2[7]
 135  00E1  3C0A        	sz c
 135  00E2  2800     R  	jmp _L24
 136  00E3              #line 136 "G:\workspace\client\利仁电气\software\NCR\ncr\ncr.c"
 136  00E3  7282        	set [130].5
 137  00E4              #line 137 "G:\workspace\client\利仁电气\software\NCR\ncr\ncr.c"
 137  00E4  3428        	clr [40].0
 138  00E5              #line 138 "G:\workspace\client\利仁电气\software\NCR\ncr\ncr.c"
 138  00E5  34A8        	clr [40].1
 138  00E6              _L24:
 142  00E6              #line 142 "G:\workspace\client\利仁电气\software\NCR\ncr\ncr.c"
 142  00E6  3028        	set [40].0
 143  00E7              #line 143 "G:\workspace\client\利仁电气\software\NCR\ncr\ncr.c"
 143  00E7  30A8        	set [40].1
 143  00E8  0700     R  	mov a,_chxTemp[0]
 143  00E9  0080     E  	mov rb,a
 147  00EA              #line 147 "G:\workspace\client\利仁电气\software\NCR\ncr\ncr.c"
 147  00EA  3C94        	sz [20].1
 147  00EB  2800     R  	jmp _L27
 148  00EC              #line 148 "G:\workspace\client\利仁电气\software\NCR\ncr\ncr.c"
 148  00EC  3C00     E  	sz rb.4
 148  00ED  2800     R  	jmp _L29
 149  00EE              #line 149 "G:\workspace\client\利仁电气\software\NCR\ncr\ncr.c"
 149  00EE  0700     R  	mov a,_systemTicksTimeStamp[0]
 149  00EF  0080     R  	mov _ch4TimeStamp[0],a
 149  00F0  0700     R  	mov a,_systemTicksTimeStamp[1]
 149  00F1  0080     R  	mov _ch4TimeStamp[1],a
 149  00F2  0700     R  	mov a,_systemTicksTimeStamp[2]
 149  00F3  0080     R  	mov _ch4TimeStamp[2],a
 149  00F4  0700     R  	mov a,_systemTicksTimeStamp[3]
 149  00F5  0080     R  	mov _ch4TimeStamp[3],a
 150  00F6              #line 150 "G:\workspace\client\利仁电气\software\NCR\ncr\ncr.c"
 150  00F6  3000     E  	set rb.4
 150  00F7  0700     E  	mov a,rb
 150  00F8  0080     R  	mov _chxTemp[0],a
 150  00F9  2800     R  	jmp _L29
 150  00FA              _L27:
 153  00FA              #line 153 "G:\workspace\client\利仁电气\software\NCR\ncr\ncr.c"
 153  00FA  3800     E  	snz rb.4
 153  00FB  2800     R  	jmp _L29
 154  00FC              #line 154 "G:\workspace\client\利仁电气\software\NCR\ncr\ncr.c"
 154  00FC  3400     E  	clr rb.4
 154  00FD  0700     E  	mov a,rb
 154  00FE  0080     R  	mov _chxTemp[0],a
 155  00FF              #line 155 "G:\workspace\client\利仁电气\software\NCR\ncr\ncr.c"
 155  00FF  0700     R  	mov a,_systemTicksTimeStamp[0]
 155  0100  0200     R  	sub a,_ch4TimeStamp[0]
 155  0101  0080     E  	mov ra,a
 155  0102  0700     R  	mov a,_systemTicksTimeStamp[1]
 155  0103  1200     R  	sbc a,_ch4TimeStamp[1]
 155  0104  0080     E  	mov rb,a
 155  0105  0700     R  	mov a,_systemTicksTimeStamp[2]
 155  0106  1200     R  	sbc a,_ch4TimeStamp[2]
 155  0107  0080     E  	mov rc,a
 155  0108  0700     R  	mov a,_systemTicksTimeStamp[3]
 155  0109  1200     R  	sbc a,_ch4TimeStamp[3]
 155  010A  0080     E  	mov rd,a
 155  010B  0700     E  	mov a,ra
 155  010C  0080     R  	mov _lose_2[4],a
 155  010D  0700     E  	mov a,rb
文件：ncr.c        编译器版本 HGASM 0202 页次10

 155  010E  0080     R  	mov _lose_2[5],a
 155  010F  0700     E  	mov a,rc
 155  0110  0080     R  	mov _lose_2[6],a
 155  0111  0700     E  	mov a,rd
 155  0112  0080     R  	mov _lose_2[7],a
 156  0113              #line 156 "G:\workspace\client\利仁电气\software\NCR\ncr\ncr.c"
 156  0113  0FFD        	mov a,253
 156  0114  0380     E  	addm a,ra
 156  0115  0FFF        	mov a,255
 156  0116  1380     E  	adcm a,rb
 156  0117  1380     E  	adcm a,rc
 156  0118  1380     E  	adcm a,rd
 156  0119  0F10        	mov a,16
 156  011A  0200     E  	sub a,ra
 156  011B  0F00        	mov a,0
 156  011C  1200     E  	sbc a,rb
 156  011D  0F00        	mov a,0
 156  011E  1200     E  	sbc a,rc
 156  011F  0F00        	mov a,0
 156  0120  1200     E  	sbc a,rd
 156  0121  380A        	snz c
 156  0122  2800     R  	jmp _L31
 157  0123              #line 157 "G:\workspace\client\利仁电气\software\NCR\ncr\ncr.c"
 157  0123  7602        	clr [130].4
 157  0124  2800     R  	jmp _L29
 157  0125              _L31:
 158  0125              #line 158 "G:\workspace\client\利仁电气\software\NCR\ncr\ncr.c"
 158  0125  0F1E        	mov a,30
 158  0126  0200     R  	sub a,_lose_2[4]
 158  0127  0F00        	mov a,0
 158  0128  1200     R  	sbc a,_lose_2[5]
 158  0129  0F00        	mov a,0
 158  012A  1200     R  	sbc a,_lose_2[6]
 158  012B  0F00        	mov a,0
 158  012C  1200     R  	sbc a,_lose_2[7]
 158  012D  3C0A        	sz c
 158  012E  2800     R  	jmp _L29
 159  012F              #line 159 "G:\workspace\client\利仁电气\software\NCR\ncr\ncr.c"
 159  012F  7202        	set [130].4
 160  0130              #line 160 "G:\workspace\client\利仁电气\software\NCR\ncr\ncr.c"
 160  0130  3428        	clr [40].0
 161  0131              #line 161 "G:\workspace\client\利仁电气\software\NCR\ncr\ncr.c"
 161  0131  34A8        	clr [40].1
 161  0132              _L29:
 165  0132              #line 165 "G:\workspace\client\利仁电气\software\NCR\ncr\ncr.c"
 165  0132  3028        	set [40].0
 166  0133              #line 166 "G:\workspace\client\利仁电气\software\NCR\ncr\ncr.c"
 166  0133  30A8        	set [40].1
 166  0134  0700     R  	mov a,_chxTemp[0]
 166  0135  0080     E  	mov rb,a
 170  0136              #line 170 "G:\workspace\client\利仁电气\software\NCR\ncr\ncr.c"
 170  0136  3D14        	sz [20].2
 170  0137  2800     R  	jmp _L32
 171  0138              #line 171 "G:\workspace\client\利仁电气\software\NCR\ncr\ncr.c"
 171  0138  3C00     E  	sz rb.3
 171  0139  2800     R  	jmp _L34
 172  013A              #line 172 "G:\workspace\client\利仁电气\software\NCR\ncr\ncr.c"
 172  013A  0700     R  	mov a,_systemTicksTimeStamp[0]
 172  013B  0080     R  	mov _ch5TimeStamp[0],a
 172  013C  0700     R  	mov a,_systemTicksTimeStamp[1]
文件：ncr.c        编译器版本 HGASM 0202 页次11

 172  013D  0080     R  	mov _ch5TimeStamp[1],a
 172  013E  0700     R  	mov a,_systemTicksTimeStamp[2]
 172  013F  0080     R  	mov _ch5TimeStamp[2],a
 172  0140  0700     R  	mov a,_systemTicksTimeStamp[3]
 172  0141  0080     R  	mov _ch5TimeStamp[3],a
 173  0142              #line 173 "G:\workspace\client\利仁电气\software\NCR\ncr\ncr.c"
 173  0142  3000     E  	set rb.3
 173  0143  0700     E  	mov a,rb
 173  0144  0080     R  	mov _chxTemp[0],a
 173  0145  2800     R  	jmp _L34
 173  0146              _L32:
 176  0146              #line 176 "G:\workspace\client\利仁电气\software\NCR\ncr\ncr.c"
 176  0146  3800     E  	snz rb.3
 176  0147  2800     R  	jmp _L34
 177  0148              #line 177 "G:\workspace\client\利仁电气\software\NCR\ncr\ncr.c"
 177  0148  3400     E  	clr rb.3
 177  0149  0700     E  	mov a,rb
 177  014A  0080     R  	mov _chxTemp[0],a
 178  014B              #line 178 "G:\workspace\client\利仁电气\software\NCR\ncr\ncr.c"
 178  014B  0700     R  	mov a,_systemTicksTimeStamp[0]
 178  014C  0200     R  	sub a,_ch5TimeStamp[0]
 178  014D  0080     E  	mov ra,a
 178  014E  0700     R  	mov a,_systemTicksTimeStamp[1]
 178  014F  1200     R  	sbc a,_ch5TimeStamp[1]
 178  0150  0080     E  	mov rb,a
 178  0151  0700     R  	mov a,_systemTicksTimeStamp[2]
 178  0152  1200     R  	sbc a,_ch5TimeStamp[2]
 178  0153  0080     E  	mov rc,a
 178  0154  0700     R  	mov a,_systemTicksTimeStamp[3]
 178  0155  1200     R  	sbc a,_ch5TimeStamp[3]
 178  0156  0080     E  	mov rd,a
 178  0157  0700     E  	mov a,ra
 178  0158  0080     R  	mov _lose_2[4],a
 178  0159  0700     E  	mov a,rb
 178  015A  0080     R  	mov _lose_2[5],a
 178  015B  0700     E  	mov a,rc
 178  015C  0080     R  	mov _lose_2[6],a
 178  015D  0700     E  	mov a,rd
 178  015E  0080     R  	mov _lose_2[7],a
 179  015F              #line 179 "G:\workspace\client\利仁电气\software\NCR\ncr\ncr.c"
 179  015F  0FFD        	mov a,253
 179  0160  0380     E  	addm a,ra
 179  0161  0FFF        	mov a,255
 179  0162  1380     E  	adcm a,rb
 179  0163  1380     E  	adcm a,rc
 179  0164  1380     E  	adcm a,rd
 179  0165  0F10        	mov a,16
 179  0166  0200     E  	sub a,ra
 179  0167  0F00        	mov a,0
 179  0168  1200     E  	sbc a,rb
 179  0169  0F00        	mov a,0
 179  016A  1200     E  	sbc a,rc
 179  016B  0F00        	mov a,0
 179  016C  1200     E  	sbc a,rd
 179  016D  380A        	snz c
 179  016E  2800     R  	jmp _L36
 180  016F              #line 180 "G:\workspace\client\利仁电气\software\NCR\ncr\ncr.c"
 180  016F  7582        	clr [130].3
 180  0170  2800     R  	jmp _L34
 180  0171              _L36:
文件：ncr.c        编译器版本 HGASM 0202 页次12

 181  0171              #line 181 "G:\workspace\client\利仁电气\software\NCR\ncr\ncr.c"
 181  0171  0F1E        	mov a,30
 181  0172  0200     R  	sub a,_lose_2[4]
 181  0173  0F00        	mov a,0
 181  0174  1200     R  	sbc a,_lose_2[5]
 181  0175  0F00        	mov a,0
 181  0176  1200     R  	sbc a,_lose_2[6]
 181  0177  0F00        	mov a,0
 181  0178  1200     R  	sbc a,_lose_2[7]
 181  0179  3C0A        	sz c
 181  017A  2800     R  	jmp _L34
 182  017B              #line 182 "G:\workspace\client\利仁电气\software\NCR\ncr\ncr.c"
 182  017B  7182        	set [130].3
 183  017C              #line 183 "G:\workspace\client\利仁电气\software\NCR\ncr\ncr.c"
 183  017C  3428        	clr [40].0
 184  017D              #line 184 "G:\workspace\client\利仁电气\software\NCR\ncr\ncr.c"
 184  017D  34A8        	clr [40].1
 184  017E              _L34:
 188  017E              #line 188 "G:\workspace\client\利仁电气\software\NCR\ncr\ncr.c"
 188  017E  3028        	set [40].0
 189  017F              #line 189 "G:\workspace\client\利仁电气\software\NCR\ncr\ncr.c"
 189  017F  30A8        	set [40].1
 189  0180  0700     R  	mov a,_chxTemp[0]
 189  0181  0080     E  	mov rb,a
 193  0182              #line 193 "G:\workspace\client\利仁电气\software\NCR\ncr\ncr.c"
 193  0182  3C14        	sz [20].0
 193  0183  2800     R  	jmp _L37
 194  0184              #line 194 "G:\workspace\client\利仁电气\software\NCR\ncr\ncr.c"
 194  0184  3C00     E  	sz rb.2
 194  0185  2800     R  	jmp _L39
 195  0186              #line 195 "G:\workspace\client\利仁电气\software\NCR\ncr\ncr.c"
 195  0186  0700     R  	mov a,_systemTicksTimeStamp[0]
 195  0187  0080     R  	mov _ch6TimeStamp[0],a
 195  0188  0700     R  	mov a,_systemTicksTimeStamp[1]
 195  0189  0080     R  	mov _ch6TimeStamp[1],a
 195  018A  0700     R  	mov a,_systemTicksTimeStamp[2]
 195  018B  0080     R  	mov _ch6TimeStamp[2],a
 195  018C  0700     R  	mov a,_systemTicksTimeStamp[3]
 195  018D  0080     R  	mov _ch6TimeStamp[3],a
 196  018E              #line 196 "G:\workspace\client\利仁电气\software\NCR\ncr\ncr.c"
 196  018E  3000     E  	set rb.2
 196  018F  0700     E  	mov a,rb
 196  0190  0080     R  	mov _chxTemp[0],a
 196  0191  2800     R  	jmp _L39
 196  0192              _L37:
 199  0192              #line 199 "G:\workspace\client\利仁电气\software\NCR\ncr\ncr.c"
 199  0192  3800     E  	snz rb.2
 199  0193  2800     R  	jmp _L39
 200  0194              #line 200 "G:\workspace\client\利仁电气\software\NCR\ncr\ncr.c"
 200  0194  3400     E  	clr rb.2
 200  0195  0700     E  	mov a,rb
 200  0196  0080     R  	mov _chxTemp[0],a
 201  0197              #line 201 "G:\workspace\client\利仁电气\software\NCR\ncr\ncr.c"
 201  0197  0700     R  	mov a,_systemTicksTimeStamp[0]
 201  0198  0200     R  	sub a,_ch6TimeStamp[0]
 201  0199  0080     E  	mov ra,a
 201  019A  0700     R  	mov a,_systemTicksTimeStamp[1]
 201  019B  1200     R  	sbc a,_ch6TimeStamp[1]
 201  019C  0080     E  	mov rb,a
 201  019D  0700     R  	mov a,_systemTicksTimeStamp[2]
文件：ncr.c        编译器版本 HGASM 0202 页次13

 201  019E  1200     R  	sbc a,_ch6TimeStamp[2]
 201  019F  0080     E  	mov rc,a
 201  01A0  0700     R  	mov a,_systemTicksTimeStamp[3]
 201  01A1  1200     R  	sbc a,_ch6TimeStamp[3]
 201  01A2  0080     E  	mov rd,a
 201  01A3  0700     E  	mov a,ra
 201  01A4  0080     R  	mov _lose_2[4],a
 201  01A5  0700     E  	mov a,rb
 201  01A6  0080     R  	mov _lose_2[5],a
 201  01A7  0700     E  	mov a,rc
 201  01A8  0080     R  	mov _lose_2[6],a
 201  01A9  0700     E  	mov a,rd
 201  01AA  0080     R  	mov _lose_2[7],a
 202  01AB              #line 202 "G:\workspace\client\利仁电气\software\NCR\ncr\ncr.c"
 202  01AB  0FFD        	mov a,253
 202  01AC  0380     E  	addm a,ra
 202  01AD  0FFF        	mov a,255
 202  01AE  1380     E  	adcm a,rb
 202  01AF  1380     E  	adcm a,rc
 202  01B0  1380     E  	adcm a,rd
 202  01B1  0F10        	mov a,16
 202  01B2  0200     E  	sub a,ra
 202  01B3  0F00        	mov a,0
 202  01B4  1200     E  	sbc a,rb
 202  01B5  0F00        	mov a,0
 202  01B6  1200     E  	sbc a,rc
 202  01B7  0F00        	mov a,0
 202  01B8  1200     E  	sbc a,rd
 202  01B9  380A        	snz c
 202  01BA  2800     R  	jmp _L41
 203  01BB              #line 203 "G:\workspace\client\利仁电气\software\NCR\ncr\ncr.c"
 203  01BB  7502        	clr [130].2
 203  01BC  2800     R  	jmp _L39
 203  01BD              _L41:
 204  01BD              #line 204 "G:\workspace\client\利仁电气\software\NCR\ncr\ncr.c"
 204  01BD  0F1E        	mov a,30
 204  01BE  0200     R  	sub a,_lose_2[4]
 204  01BF  0F00        	mov a,0
 204  01C0  1200     R  	sbc a,_lose_2[5]
 204  01C1  0F00        	mov a,0
 204  01C2  1200     R  	sbc a,_lose_2[6]
 204  01C3  0F00        	mov a,0
 204  01C4  1200     R  	sbc a,_lose_2[7]
 204  01C5  3C0A        	sz c
 204  01C6  2800     R  	jmp _L39
 205  01C7              #line 205 "G:\workspace\client\利仁电气\software\NCR\ncr\ncr.c"
 205  01C7  7102        	set [130].2
 206  01C8              #line 206 "G:\workspace\client\利仁电气\software\NCR\ncr\ncr.c"
 206  01C8  3428        	clr [40].0
 207  01C9              #line 207 "G:\workspace\client\利仁电气\software\NCR\ncr\ncr.c"
 207  01C9  34A8        	clr [40].1
 207  01CA              _L39:
 212  01CA              #line 212 "G:\workspace\client\利仁电气\software\NCR\ncr\ncr.c"
 212  01CA  0700     E  	mov a,re
 212  01CB  4202        	sub a,[130]
 212  01CC  3D0A        	sz z
 212  01CD  2800     R  	jmp _L11
 213  01CE              #line 213 "G:\workspace\client\利仁电气\software\NCR\ncr\ncr.c"
 213  01CE  4702        	mov a,[130]
 213  01CF  0080     E  	mov _zh_memoryWriteByte_2[0],a
文件：ncr.c        编译器版本 HGASM 0202 页次14

 213  01D0  0F00        	mov a,0
 213  01D1  2000     E  	call _zh_memoryWriteByte
 213  01D2              _L11:
 213  01D2  0003        	ret
 213  01D3              _lose endp
 213  01D3              #line 213 "G:\workspace\client\利仁电气\software\NCR\ncr\ncr.c"
 213  01D3              #pragma debug scope 1 1
 213  01D3              ___pb equ [32]
 213  01D3              public _gotoWaring
 213  01D3              #pragma debug scope 7 1
 218  01D3              #line 218 "G:\workspace\client\利仁电气\software\NCR\ncr\ncr.c"
 218  0000              _gotoWaring .section 'code'
 218  0000              _gotoWaring proc
 218  0000  0005[           local _gotoWaring_2 db 5 dup(?)	; 0,5
            00
            ]
 218  0005              #pragma debug variable 12 7 _gotoWaring_2+0 "waringTimeIndex"
 222  0005              #line 222 "G:\workspace\client\利仁电气\software\NCR\ncr\ncr.c"
 222  0000  1F00     R  	clr _gotoWaring_2[0]
 222  0001  1F00     R  	clr _gotoWaring_2[1]
 225  0002              #line 225 "G:\workspace\client\利仁电气\software\NCR\ncr\ncr.c"
 225  0002  3A20        	snz [32].4
 225  0003  2800     R  	jmp _L86
 225  0004              #line 225 "G:\workspace\client\利仁电气\software\NCR\ncr\ncr.c"
 225  0004  0F02        	mov a,2
 225  0005  0080     E  	mov ra,a
 225  0006  2800     R  	jmp _L59
 225  0007              _L86:
 226  0007              #line 226 "G:\workspace\client\利仁电气\software\NCR\ncr\ncr.c"
 226  0007  1F00     E  	clr ra
 226  0008              _L59:
 228  0008              #line 228 "G:\workspace\client\利仁电气\software\NCR\ncr\ncr.c"
 228  0008  3AA0        	snz [32].5
 228  0009  2800     R  	jmp _L60
 228  000A  3000     E  	set ra.0
 228  000B  2800     R  	jmp _L88
 228  000C              _L60:
 229  000C              #line 229 "G:\workspace\client\利仁电气\software\NCR\ncr\ncr.c"
 229  000C  3400     E  	clr ra.0
 229  000D              _L88:
 229  000D  0700     E  	mov a,ra
 229  000E  0080     R  	mov _gotoWaring_2[4],a
 231  000F              #line 231 "G:\workspace\client\利仁电气\software\NCR\ncr\ncr.c"
 231  000F  3B20        	snz [32].6
 231  0010  2800     R  	jmp _L87
 231  0011  0F02        	mov a,2
 231  0012  0080     E  	mov ra,a
 231  0013  2800     R  	jmp _L62
 231  0014              _L87:
 232  0014              #line 232 "G:\workspace\client\利仁电气\software\NCR\ncr\ncr.c"
 232  0014  1F00     E  	clr ra
 232  0015              _L62:
 234  0015              #line 234 "G:\workspace\client\利仁电气\software\NCR\ncr\ncr.c"
 234  0015  3BA0        	snz [32].7
 234  0016  2800     R  	jmp _L63
 234  0017  3000     E  	set ra.0
 234  0018  2800     R  	jmp _L64
 234  0019              _L63:
 235  0019              #line 235 "G:\workspace\client\利仁电气\software\NCR\ncr\ncr.c"
 235  0019  3400     E  	clr ra.0
文件：ncr.c        编译器版本 HGASM 0202 页次15

 235  001A              _L64:
 240  001A              #line 240 "G:\workspace\client\利仁电气\software\NCR\ncr\ncr.c"
 240  001A  1700     E  	sdza ra
 240  001B  2800     R  	jmp _L65
 241  001C              #line 241 "G:\workspace\client\利仁电气\software\NCR\ncr\ncr.c"
 241  001C  3628        	clr [40].4
 243  001D              #line 243 "G:\workspace\client\利仁电气\software\NCR\ncr\ncr.c"
 243  001D  0F1F        	mov a,31
 243  001E  0080     R  	mov _gotoWaring_2[2],a
 243  001F  1F00     R  	clr _gotoWaring_2[3]
 243  0020              _L73:
 245  0020              #line 245 "G:\workspace\client\利仁电气\software\NCR\ncr\ncr.c"
 245  0020  0F00     R  	mov a,low offset _gotoWaring_2
 245  0021  0080     E  	mov _doBee_2[0],a
 245  0022  0F00     R  	mov a,high offset _gotoWaring_2
 245  0023  0080     E  	mov _doBee_2[1],a
 245  0024  0700     R  	mov a,_gotoWaring_2[4]
 245  0025  2000     E  	call _doBee
 246  0026              #line 246 "G:\workspace\client\利仁电气\software\NCR\ncr\ncr.c"
 246  0026  3C20        	sz [32].0
 246  0027  2800     R  	jmp _L66
 247  0028              #line 247 "G:\workspace\client\利仁电气\software\NCR\ncr\ncr.c"
 247  0028  2000     E  	call _keysPushWaring
 248  0029              #line 248 "G:\workspace\client\利仁电气\software\NCR\ncr\ncr.c"
 248  0029  36A8        	clr [40].5
 248  002A              _L68:
 251  002A              #line 251 "G:\workspace\client\利仁电气\software\NCR\ncr\ncr.c"
 251  002A  0F0A        	mov a,10
 251  002B  0080     E  	mov _delay_2[0],a
 251  002C  1F00     E  	clr _delay_2[1]
 251  002D  1F00     E  	clr _delay_2[2]
 251  002E  1F00     E  	clr _delay_2[3]
 251  002F  2000     E  	call _delay
 250  0030              #line 250 "G:\workspace\client\利仁电气\software\NCR\ncr\ncr.c"
 250  0030  3B14        	snz [20].6
 250  0031  2800     R  	jmp _L68
 250  0032  2800     R  	jmp _L90
 250  0033              _L66:
 257  0033              #line 257 "G:\workspace\client\利仁电气\software\NCR\ncr\ncr.c"
 257  0033  2000     R  	call _lose
 258  0034              #line 258 "G:\workspace\client\利仁电气\software\NCR\ncr\ncr.c"
 258  0034  0700     R  	mov a,_gotoWaring_2[2]
 258  0035  0500     R  	or a,_gotoWaring_2[3]
 258  0036  3D0A        	sz z
 258  0037  2800     R  	jmp _L70
 259  0038              #line 259 "G:\workspace\client\利仁电气\software\NCR\ncr\ncr.c"
 259  0038  0FFF        	mov a,255
 259  0039  0380     R  	addm a,_gotoWaring_2[2]
 259  003A  0FFF        	mov a,255
 259  003B  1380     R  	adcm a,_gotoWaring_2[3]
 259  003C  2800     R  	jmp _L71
 259  003D              _L70:
 261  003D              #line 261 "G:\workspace\client\利仁电气\software\NCR\ncr\ncr.c"
 261  003D  3228        	set [40].4
 261  003E              _L71:
 264  003E              #line 264 "G:\workspace\client\利仁电气\software\NCR\ncr\ncr.c"
 264  003E  3F14        	sz [20].6
 264  003F  2800     R  	jmp _L91
 269  0040              #line 269 "G:\workspace\client\利仁电气\software\NCR\ncr\ncr.c"
 269  0040  0F1E        	mov a,30
文件：ncr.c        编译器版本 HGASM 0202 页次16

 269  0041  0080     E  	mov _delay_2[0],a
 269  0042  1F00     E  	clr _delay_2[1]
 269  0043  1F00     E  	clr _delay_2[2]
 269  0044  1F00     E  	clr _delay_2[3]
 269  0045  2000     E  	call _delay
 271  0046              #line 271 "G:\workspace\client\利仁电气\software\NCR\ncr\ncr.c"
 271  0046  3028        	set [40].0
 272  0047              #line 272 "G:\workspace\client\利仁电气\software\NCR\ncr\ncr.c"
 272  0047  30A8        	set [40].1
 273  0048              #line 273 "G:\workspace\client\利仁电气\software\NCR\ncr\ncr.c"
 273  0048  0F01        	mov a,1
 273  0049  0380     R  	addm a,_systemTicksTimeStamp[0]
 273  004A  0F00        	mov a,0
 273  004B  1380     R  	adcm a,_systemTicksTimeStamp[1]
 273  004C  1380     R  	adcm a,_systemTicksTimeStamp[2]
 273  004D  1380     R  	adcm a,_systemTicksTimeStamp[3]
 274  004E              #line 274 "G:\workspace\client\利仁电气\software\NCR\ncr\ncr.c"
 274  004E  1480     R  	inc _gotoWaring_2[0]
 274  004F  3D0A        	sz z
 274  0050  1480     R  	inc _gotoWaring_2[1]
 275  0051              #line 275 "G:\workspace\client\利仁电气\software\NCR\ncr\ncr.c"
 275  0051  2800     R  	jmp _L73
 275  0052              _L65:
 276  0052              #line 276 "G:\workspace\client\利仁电气\software\NCR\ncr\ncr.c"
 276  0052  0700     E  	mov a,ra
 276  0053  0A02        	sub a,2
 276  0054  390A        	snz z
 276  0055  2800     R  	jmp _L74
 276  0056  1F00     R  	clr _gotoWaring_2[2]
 276  0057  1F00     R  	clr _gotoWaring_2[3]
 276  0058              _L80:
 280  0058              #line 280 "G:\workspace\client\利仁电气\software\NCR\ncr\ncr.c"
 280  0058  0F00     R  	mov a,low offset _gotoWaring_2
 280  0059  0080     E  	mov _doBee_2[0],a
 280  005A  0F00     R  	mov a,high offset _gotoWaring_2
 280  005B  0080     E  	mov _doBee_2[1],a
 280  005C  0700     R  	mov a,_gotoWaring_2[4]
 280  005D  2000     E  	call _doBee
 281  005E              #line 281 "G:\workspace\client\利仁电气\software\NCR\ncr\ncr.c"
 281  005E  3C20        	sz [32].0
 281  005F  2800     R  	jmp _L75
 282  0060              #line 282 "G:\workspace\client\利仁电气\software\NCR\ncr\ncr.c"
 282  0060  2000     E  	call _keysPushWaring
 283  0061              #line 283 "G:\workspace\client\利仁电气\software\NCR\ncr\ncr.c"
 283  0061  36A8        	clr [40].5
 283  0062              _L77:
 286  0062              #line 286 "G:\workspace\client\利仁电气\software\NCR\ncr\ncr.c"
 286  0062  0F0A        	mov a,10
 286  0063  0080     E  	mov _delay_2[0],a
 286  0064  1F00     E  	clr _delay_2[1]
 286  0065  1F00     E  	clr _delay_2[2]
 286  0066  1F00     E  	clr _delay_2[3]
 286  0067  2000     E  	call _delay
 285  0068              #line 285 "G:\workspace\client\利仁电气\software\NCR\ncr\ncr.c"
 285  0068  3B14        	snz [20].6
 285  0069  2800     R  	jmp _L77
 285  006A  2800     R  	jmp _L90
 285  006B              _L75:
 292  006B              #line 292 "G:\workspace\client\利仁电气\software\NCR\ncr\ncr.c"
 292  006B  2000     R  	call _lose
文件：ncr.c        编译器版本 HGASM 0202 页次17

 293  006C              #line 293 "G:\workspace\client\利仁电气\software\NCR\ncr\ncr.c"
 293  006C  0700     R  	mov a,_gotoWaring_2[2]
 293  006D  0C0A        	xor a,10
 293  006E  0500     R  	or a,_gotoWaring_2[3]
 293  006F  390A        	snz z
 293  0070  2800     R  	jmp _L78
 294  0071              #line 294 "G:\workspace\client\利仁电气\software\NCR\ncr\ncr.c"
 294  0071  1128        	swapa [40]
 294  0072  0E0F        	and a,0fh
 294  0073  0080     E  	mov ra,a
 294  0074  0F01        	mov a,1
 294  0075  0480     E  	xorm a,ra
 294  0076  0F01        	mov a,1
 294  0077  0680     E  	andm a,ra
 294  0078  1100     E  	swapa ra
 294  0079  0EF0        	and a,0f0h 
 294  007A  0080     E  	mov ra,a
 294  007B  3628        	clr [40].4
 294  007C  0700     E  	mov a,ra
 294  007D  05A8        	orm a,[40]
 295  007E              #line 295 "G:\workspace\client\利仁电气\software\NCR\ncr\ncr.c"
 295  007E  1F00     R  	clr _gotoWaring_2[2]
 295  007F  1F00     R  	clr _gotoWaring_2[3]
 295  0080              _L78:
 298  0080              #line 298 "G:\workspace\client\利仁电气\software\NCR\ncr\ncr.c"
 298  0080  3F14        	sz [20].6
 298  0081  2800     R  	jmp _L91
 303  0082              #line 303 "G:\workspace\client\利仁电气\software\NCR\ncr\ncr.c"
 303  0082  0F1E        	mov a,30
 303  0083  0080     E  	mov _delay_2[0],a
 303  0084  1F00     E  	clr _delay_2[1]
 303  0085  1F00     E  	clr _delay_2[2]
 303  0086  1F00     E  	clr _delay_2[3]
 303  0087  2000     E  	call _delay
 305  0088              #line 305 "G:\workspace\client\利仁电气\software\NCR\ncr\ncr.c"
 305  0088  0F01        	mov a,1
 305  0089  0380     R  	addm a,_systemTicksTimeStamp[0]
 305  008A  0F00        	mov a,0
 305  008B  1380     R  	adcm a,_systemTicksTimeStamp[1]
 305  008C  1380     R  	adcm a,_systemTicksTimeStamp[2]
 305  008D  1380     R  	adcm a,_systemTicksTimeStamp[3]
 306  008E              #line 306 "G:\workspace\client\利仁电气\software\NCR\ncr\ncr.c"
 306  008E  1480     R  	inc _gotoWaring_2[0]
 306  008F  3D0A        	sz z
 306  0090  1480     R  	inc _gotoWaring_2[1]
 307  0091              #line 307 "G:\workspace\client\利仁电气\software\NCR\ncr\ncr.c"
 307  0091  1480     R  	inc _gotoWaring_2[2]
 307  0092  3D0A        	sz z
 307  0093  1480     R  	inc _gotoWaring_2[3]
 308  0094              #line 308 "G:\workspace\client\利仁电气\software\NCR\ncr\ncr.c"
 308  0094  2800     R  	jmp _L80
 308  0095              _L74:
 310  0095              #line 310 "G:\workspace\client\利仁电气\software\NCR\ncr\ncr.c"
 310  0095  3628        	clr [40].4
 310  0096              _L85:
 313  0096              #line 313 "G:\workspace\client\利仁电气\software\NCR\ncr\ncr.c"
 313  0096  0F00     R  	mov a,low offset _gotoWaring_2
 313  0097  0080     E  	mov _doBee_2[0],a
 313  0098  0F00     R  	mov a,high offset _gotoWaring_2
 313  0099  0080     E  	mov _doBee_2[1],a
文件：ncr.c        编译器版本 HGASM 0202 页次18

 313  009A  0700     R  	mov a,_gotoWaring_2[4]
 313  009B  2000     E  	call _doBee
 314  009C              #line 314 "G:\workspace\client\利仁电气\software\NCR\ncr\ncr.c"
 314  009C  3C20        	sz [32].0
 314  009D  2800     R  	jmp _L81
 315  009E              #line 315 "G:\workspace\client\利仁电气\software\NCR\ncr\ncr.c"
 315  009E  2000     E  	call _keysPushWaring
 316  009F              #line 316 "G:\workspace\client\利仁电气\software\NCR\ncr\ncr.c"
 316  009F  36A8        	clr [40].5
 316  00A0              _L83:
 319  00A0              #line 319 "G:\workspace\client\利仁电气\software\NCR\ncr\ncr.c"
 319  00A0  0F0A        	mov a,10
 319  00A1  0080     E  	mov _delay_2[0],a
 319  00A2  1F00     E  	clr _delay_2[1]
 319  00A3  1F00     E  	clr _delay_2[2]
 319  00A4  1F00     E  	clr _delay_2[3]
 319  00A5  2000     E  	call _delay
 318  00A6              #line 318 "G:\workspace\client\利仁电气\software\NCR\ncr\ncr.c"
 318  00A6  3B14        	snz [20].6
 318  00A7  2800     R  	jmp _L83
 318  00A8              _L90:
 321  00A8              #line 321 "G:\workspace\client\利仁电气\software\NCR\ncr\ncr.c"
 321  00A8  32A8        	set [40].5
 322  00A9              #line 322 "G:\workspace\client\利仁电气\software\NCR\ncr\ncr.c"
 322  00A9  5F04        	clr [132]
 323  00AA              #line 323 "G:\workspace\client\利仁电气\software\NCR\ncr\ncr.c"
 323  00AA  2800     R  	jmp _L69
 323  00AB              _L81:
 325  00AB              #line 325 "G:\workspace\client\利仁电气\software\NCR\ncr\ncr.c"
 325  00AB  2000     R  	call _lose
 326  00AC              #line 326 "G:\workspace\client\利仁电气\software\NCR\ncr\ncr.c"
 326  00AC  3B14        	snz [20].6
 326  00AD  2800     R  	jmp _L84
 326  00AE              _L91:
 327  00AE              #line 327 "G:\workspace\client\利仁电气\software\NCR\ncr\ncr.c"
 327  00AE  5F04        	clr [132]
 328  00AF              #line 328 "G:\workspace\client\利仁电气\software\NCR\ncr\ncr.c"
 328  00AF  0F0A        	mov a,10
 328  00B0  0080     E  	mov _delay_2[0],a
 328  00B1  1F00     E  	clr _delay_2[1]
 328  00B2  1F00     E  	clr _delay_2[2]
 328  00B3  1F00     E  	clr _delay_2[3]
 328  00B4  2000     E  	call _delay
 329  00B5              #line 329 "G:\workspace\client\利仁电气\software\NCR\ncr\ncr.c"
 329  00B5  2800     R  	jmp _L69
 329  00B6              _L84:
 331  00B6              #line 331 "G:\workspace\client\利仁电气\software\NCR\ncr\ncr.c"
 331  00B6  0F1E        	mov a,30
 331  00B7  0080     E  	mov _delay_2[0],a
 331  00B8  1F00     E  	clr _delay_2[1]
 331  00B9  1F00     E  	clr _delay_2[2]
 331  00BA  1F00     E  	clr _delay_2[3]
 331  00BB  2000     E  	call _delay
 333  00BC              #line 333 "G:\workspace\client\利仁电气\software\NCR\ncr\ncr.c"
 333  00BC  0F01        	mov a,1
 333  00BD  0380     R  	addm a,_systemTicksTimeStamp[0]
 333  00BE  0F00        	mov a,0
 333  00BF  1380     R  	adcm a,_systemTicksTimeStamp[1]
 333  00C0  1380     R  	adcm a,_systemTicksTimeStamp[2]
 333  00C1  1380     R  	adcm a,_systemTicksTimeStamp[3]
文件：ncr.c        编译器版本 HGASM 0202 页次19

 334  00C2              #line 334 "G:\workspace\client\利仁电气\software\NCR\ncr\ncr.c"
 334  00C2  1480     R  	inc _gotoWaring_2[0]
 334  00C3  3D0A        	sz z
 334  00C4  1480     R  	inc _gotoWaring_2[1]
 336  00C5              #line 336 "G:\workspace\client\利仁电气\software\NCR\ncr\ncr.c"
 336  00C5  2800     R  	jmp _L85
 336  00C6              _L69:
 338  00C6              #line 338 "G:\workspace\client\利仁电气\software\NCR\ncr\ncr.c"
 338  00C6  0F00        	mov a,0
 338  00C7  2000     E  	call _toneMode
 339  00C8              #line 339 "G:\workspace\client\利仁电气\software\NCR\ncr\ncr.c"
 339  00C8  3228        	set [40].4
 340  00C9              #line 340 "G:\workspace\client\利仁电气\software\NCR\ncr\ncr.c"
 340  00C9  3328        	set [40].6
 341  00CA              #line 341 "G:\workspace\client\利仁电气\software\NCR\ncr\ncr.c"
 341  00CA  0FE8        	mov a,-24
 341  00CB  0080     E  	mov _delay_2[0],a
 341  00CC  0F03        	mov a,3
 341  00CD  0080     E  	mov _delay_2[1],a
 341  00CE  1F00     E  	clr _delay_2[2]
 341  00CF  1F00     E  	clr _delay_2[3]
 341  00D0  2000     E  	call _delay
 341  00D1  0003        	ret
 341  00D2              _gotoWaring endp
 341  00D2              #line 341 "G:\workspace\client\利仁电气\software\NCR\ncr\ncr.c"
 341  00D2              #pragma debug scope 1 1
 341  00D2              public _gotoLowBatWaring
 341  00D2              #pragma debug scope 8 1
 345  00D2              #line 345 "G:\workspace\client\利仁电气\software\NCR\ncr\ncr.c"
 345  0000              _gotoLowBatWaring .section 'code'
 345  0000              _gotoLowBatWaring proc
 345  0000  0006[           local _gotoLowBatWaring_2 db 6 dup(?)	; 0,6
            00
            ]
 345  0006              #pragma debug variable 12 8 _gotoLowBatWaring_2+0 "waringTimeIndex"
 349  0006              #line 349 "G:\workspace\client\利仁电气\software\NCR\ncr\ncr.c"
 349  0000  1F00     R  	clr _gotoLowBatWaring_2[0]
 349  0001  1F00     R  	clr _gotoLowBatWaring_2[1]
 353  0002              #line 353 "G:\workspace\client\利仁电气\software\NCR\ncr\ncr.c"
 353  0002  3A20        	snz [32].4
 353  0003  2800     R  	jmp _L122
 353  0004              #line 353 "G:\workspace\client\利仁电气\software\NCR\ncr\ncr.c"
 353  0004  0F02        	mov a,2
 353  0005  0080     E  	mov ra,a
 353  0006  2800     R  	jmp _L93
 353  0007              _L122:
 354  0007              #line 354 "G:\workspace\client\利仁电气\software\NCR\ncr\ncr.c"
 354  0007  1F00     E  	clr ra
 354  0008              _L93:
 356  0008              #line 356 "G:\workspace\client\利仁电气\software\NCR\ncr\ncr.c"
 356  0008  3AA0        	snz [32].5
 356  0009  2800     R  	jmp _L94
 356  000A  3000     E  	set ra.0
 356  000B  2800     R  	jmp _L130
 356  000C              _L94:
 357  000C              #line 357 "G:\workspace\client\利仁电气\software\NCR\ncr\ncr.c"
 357  000C  3400     E  	clr ra.0
 357  000D              _L130:
 357  000D  0700     E  	mov a,ra
 357  000E  0080     R  	mov _gotoLowBatWaring_2[5],a
文件：ncr.c        编译器版本 HGASM 0202 页次20

 359  000F              #line 359 "G:\workspace\client\利仁电气\software\NCR\ncr\ncr.c"
 359  000F  3B20        	snz [32].6
 359  0010  2800     R  	jmp _L123
 359  0011  0F02        	mov a,2
 359  0012  0080     E  	mov ra,a
 359  0013  2800     R  	jmp _L96
 359  0014              _L123:
 360  0014              #line 360 "G:\workspace\client\利仁电气\software\NCR\ncr\ncr.c"
 360  0014  1F00     E  	clr ra
 360  0015              _L96:
 362  0015              #line 362 "G:\workspace\client\利仁电气\software\NCR\ncr\ncr.c"
 362  0015  3BA0        	snz [32].7
 362  0016  2800     R  	jmp _L97
 362  0017  3000     E  	set ra.0
 362  0018              _L97:
 366  0018              #line 366 "G:\workspace\client\利仁电气\software\NCR\ncr\ncr.c"
 366  0018  3028        	set [40].0
 368  0019              #line 368 "G:\workspace\client\利仁电气\software\NCR\ncr\ncr.c"
 368  0019  1700     E  	sdza ra
 368  001A  2800     R  	jmp _L98
 369  001B              #line 369 "G:\workspace\client\利仁电气\software\NCR\ncr\ncr.c"
 369  001B  3628        	clr [40].4
 351  001C              #line 351 "G:\workspace\client\利仁电气\software\NCR\ncr\ncr.c"
 351  001C  1F00     R  	clr _gotoLowBatWaring_2[2]
 371  001D              #line 371 "G:\workspace\client\利仁电气\software\NCR\ncr\ncr.c"
 371  001D  0F1F        	mov a,31
 371  001E  0080     R  	mov _gotoLowBatWaring_2[3],a
 371  001F  1F00     R  	clr _gotoLowBatWaring_2[4]
 371  0020              _L107:
 374  0020              #line 374 "G:\workspace\client\利仁电气\software\NCR\ncr\ncr.c"
 374  0020  1080     R  	sz _gotoLowBatWaring_2[2]
 374  0021  2800     R  	jmp _L99
 375  0022              #line 375 "G:\workspace\client\利仁电气\software\NCR\ncr\ncr.c"
 375  0022  34A8        	clr [40].1
 375  0023  2800     R  	jmp _L100
 375  0024              _L99:
 377  0024              #line 377 "G:\workspace\client\利仁电气\software\NCR\ncr\ncr.c"
 377  0024  30A8        	set [40].1
 377  0025              _L100:
 379  0025              #line 379 "G:\workspace\client\利仁电气\software\NCR\ncr\ncr.c"
 379  0025  0F00     R  	mov a,low offset _gotoLowBatWaring_2
 379  0026  0080     E  	mov _doBee_2[0],a
 379  0027  0F00     R  	mov a,high offset _gotoLowBatWaring_2
 379  0028  0080     E  	mov _doBee_2[1],a
 379  0029  0700     R  	mov a,_gotoLowBatWaring_2[5]
 379  002A  2000     E  	call _doBee
 380  002B              #line 380 "G:\workspace\client\利仁电气\software\NCR\ncr\ncr.c"
 380  002B  3C20        	sz [32].0
 380  002C  2800     R  	jmp _L101
 381  002D              #line 381 "G:\workspace\client\利仁电气\software\NCR\ncr\ncr.c"
 381  002D  0F02        	mov a,2
 381  002E  4085        	mov [133],a
 382  002F              #line 382 "G:\workspace\client\利仁电气\software\NCR\ncr\ncr.c"
 382  002F  0F0A        	mov a,10
 382  0030  0080     E  	mov _delay_2[0],a
 382  0031  1F00     E  	clr _delay_2[1]
 382  0032  1F00     E  	clr _delay_2[2]
 382  0033  1F00     E  	clr _delay_2[3]
 382  0034  2000     E  	call _delay
 383  0035              #line 383 "G:\workspace\client\利仁电气\software\NCR\ncr\ncr.c"
文件：ncr.c        编译器版本 HGASM 0202 页次21

 383  0035  2800     R  	jmp _L102
 383  0036              _L101:
 386  0036              #line 386 "G:\workspace\client\利仁电气\software\NCR\ncr\ncr.c"
 386  0036  0700     R  	mov a,_gotoLowBatWaring_2[3]
 386  0037  0500     R  	or a,_gotoLowBatWaring_2[4]
 386  0038  3D0A        	sz z
 386  0039  2800     R  	jmp _L103
 387  003A              #line 387 "G:\workspace\client\利仁电气\software\NCR\ncr\ncr.c"
 387  003A  0FFF        	mov a,255
 387  003B  0380     R  	addm a,_gotoLowBatWaring_2[3]
 387  003C  0FFF        	mov a,255
 387  003D  1380     R  	adcm a,_gotoLowBatWaring_2[4]
 387  003E  2800     R  	jmp _L104
 387  003F              _L103:
 389  003F              #line 389 "G:\workspace\client\利仁电气\software\NCR\ncr\ncr.c"
 389  003F  3228        	set [40].4
 389  0040              _L104:
 392  0040              #line 392 "G:\workspace\client\利仁电气\software\NCR\ncr\ncr.c"
 392  0040  3F94        	sz [20].7
 392  0041  2800     R  	jmp _L132
 398  0042              #line 398 "G:\workspace\client\利仁电气\software\NCR\ncr\ncr.c"
 398  0042  0F23        	mov a,35
 398  0043  0080     E  	mov _delay_2[0],a
 398  0044  1F00     E  	clr _delay_2[1]
 398  0045  1F00     E  	clr _delay_2[2]
 398  0046  1F00     E  	clr _delay_2[3]
 398  0047  2000     E  	call _delay
 399  0048              #line 399 "G:\workspace\client\利仁电气\software\NCR\ncr\ncr.c"
 399  0048  1480     R  	inc _gotoLowBatWaring_2[2]
 400  0049              #line 400 "G:\workspace\client\利仁电气\software\NCR\ncr\ncr.c"
 400  0049  0F95        	mov a,149
 400  004A  0200     R  	sub a,_gotoLowBatWaring_2[2]
 400  004B  3C0A        	sz c
 400  004C  2800     R  	jmp _L106
 400  004D  1F00     R  	clr _gotoLowBatWaring_2[2]
 400  004E              _L106:
 401  004E              #line 401 "G:\workspace\client\利仁电气\software\NCR\ncr\ncr.c"
 401  004E  1480     R  	inc _gotoLowBatWaring_2[0]
 401  004F  3D0A        	sz z
 401  0050  1480     R  	inc _gotoLowBatWaring_2[1]
 402  0051              #line 402 "G:\workspace\client\利仁电气\software\NCR\ncr\ncr.c"
 402  0051  2800     R  	jmp _L107
 402  0052              _L98:
 403  0052              #line 403 "G:\workspace\client\利仁电气\software\NCR\ncr\ncr.c"
 403  0052  0700     E  	mov a,ra
 403  0053  0A02        	sub a,2
 403  0054  390A        	snz z
 403  0055  2800     R  	jmp _L108
 403  0056  1F00     R  	clr _gotoLowBatWaring_2[2]
 403  0057  1F00     R  	clr _gotoLowBatWaring_2[3]
 403  0058  1F00     R  	clr _gotoLowBatWaring_2[4]
 403  0059              _L115:
 407  0059              #line 407 "G:\workspace\client\利仁电气\software\NCR\ncr\ncr.c"
 407  0059  1080     R  	sz _gotoLowBatWaring_2[2]
 407  005A  2800     R  	jmp _L109
 408  005B              #line 408 "G:\workspace\client\利仁电气\software\NCR\ncr\ncr.c"
 408  005B  34A8        	clr [40].1
 408  005C  2800     R  	jmp _L110
 408  005D              _L109:
 410  005D              #line 410 "G:\workspace\client\利仁电气\software\NCR\ncr\ncr.c"
文件：ncr.c        编译器版本 HGASM 0202 页次22

 410  005D  30A8        	set [40].1
 410  005E              _L110:
 413  005E              #line 413 "G:\workspace\client\利仁电气\software\NCR\ncr\ncr.c"
 413  005E  0F00     R  	mov a,low offset _gotoLowBatWaring_2
 413  005F  0080     E  	mov _doBee_2[0],a
 413  0060  0F00     R  	mov a,high offset _gotoLowBatWaring_2
 413  0061  0080     E  	mov _doBee_2[1],a
 413  0062  0700     R  	mov a,_gotoLowBatWaring_2[5]
 413  0063  2000     E  	call _doBee
 414  0064              #line 414 "G:\workspace\client\利仁电气\software\NCR\ncr\ncr.c"
 414  0064  3820        	snz [32].0
 414  0065  2800     R  	jmp _L131
 420  0066              #line 420 "G:\workspace\client\利仁电气\software\NCR\ncr\ncr.c"
 420  0066  0700     R  	mov a,_gotoLowBatWaring_2[3]
 420  0067  0C0A        	xor a,10
 420  0068  0500     R  	or a,_gotoLowBatWaring_2[4]
 420  0069  390A        	snz z
 420  006A  2800     R  	jmp _L112
 421  006B              #line 421 "G:\workspace\client\利仁电气\software\NCR\ncr\ncr.c"
 421  006B  1128        	swapa [40]
 421  006C  0E0F        	and a,0fh
 421  006D  0080     E  	mov ra,a
 421  006E  0F01        	mov a,1
 421  006F  0480     E  	xorm a,ra
 421  0070  0F01        	mov a,1
 421  0071  0680     E  	andm a,ra
 421  0072  1100     E  	swapa ra
 421  0073  0EF0        	and a,0f0h 
 421  0074  0080     E  	mov ra,a
 421  0075  3628        	clr [40].4
 421  0076  0700     E  	mov a,ra
 421  0077  05A8        	orm a,[40]
 422  0078              #line 422 "G:\workspace\client\利仁电气\software\NCR\ncr\ncr.c"
 422  0078  1F00     R  	clr _gotoLowBatWaring_2[3]
 422  0079  1F00     R  	clr _gotoLowBatWaring_2[4]
 422  007A              _L112:
 425  007A              #line 425 "G:\workspace\client\利仁电气\software\NCR\ncr\ncr.c"
 425  007A  3F94        	sz [20].7
 425  007B  2800     R  	jmp _L132
 431  007C              #line 431 "G:\workspace\client\利仁电气\software\NCR\ncr\ncr.c"
 431  007C  0F23        	mov a,35
 431  007D  0080     E  	mov _delay_2[0],a
 431  007E  1F00     E  	clr _delay_2[1]
 431  007F  1F00     E  	clr _delay_2[2]
 431  0080  1F00     E  	clr _delay_2[3]
 431  0081  2000     E  	call _delay
 432  0082              #line 432 "G:\workspace\client\利仁电气\software\NCR\ncr\ncr.c"
 432  0082  1480     R  	inc _gotoLowBatWaring_2[2]
 433  0083              #line 433 "G:\workspace\client\利仁电气\software\NCR\ncr\ncr.c"
 433  0083  0F95        	mov a,149
 433  0084  0200     R  	sub a,_gotoLowBatWaring_2[2]
 433  0085  3C0A        	sz c
 433  0086  2800     R  	jmp _L114
 433  0087  1F00     R  	clr _gotoLowBatWaring_2[2]
 433  0088              _L114:
 434  0088              #line 434 "G:\workspace\client\利仁电气\software\NCR\ncr\ncr.c"
 434  0088  1480     R  	inc _gotoLowBatWaring_2[0]
 434  0089  3D0A        	sz z
 434  008A  1480     R  	inc _gotoLowBatWaring_2[1]
 435  008B              #line 435 "G:\workspace\client\利仁电气\software\NCR\ncr\ncr.c"
文件：ncr.c        编译器版本 HGASM 0202 页次23

 435  008B  1480     R  	inc _gotoLowBatWaring_2[3]
 435  008C  3D0A        	sz z
 435  008D  1480     R  	inc _gotoLowBatWaring_2[4]
 436  008E              #line 436 "G:\workspace\client\利仁电气\software\NCR\ncr\ncr.c"
 436  008E  2800     R  	jmp _L115
 436  008F              _L108:
 438  008F              #line 438 "G:\workspace\client\利仁电气\software\NCR\ncr\ncr.c"
 438  008F  3628        	clr [40].4
 351  0090              #line 351 "G:\workspace\client\利仁电气\software\NCR\ncr\ncr.c"
 351  0090  1F00     R  	clr _gotoLowBatWaring_2[2]
 351  0091              _L121:
 441  0091              #line 441 "G:\workspace\client\利仁电气\software\NCR\ncr\ncr.c"
 441  0091  1080     R  	sz _gotoLowBatWaring_2[2]
 441  0092  2800     R  	jmp _L116
 442  0093              #line 442 "G:\workspace\client\利仁电气\software\NCR\ncr\ncr.c"
 442  0093  34A8        	clr [40].1
 442  0094  2800     R  	jmp _L117
 442  0095              _L116:
 444  0095              #line 444 "G:\workspace\client\利仁电气\software\NCR\ncr\ncr.c"
 444  0095  30A8        	set [40].1
 444  0096              _L117:
 446  0096              #line 446 "G:\workspace\client\利仁电气\software\NCR\ncr\ncr.c"
 446  0096  0F00     R  	mov a,low offset _gotoLowBatWaring_2
 446  0097  0080     E  	mov _doBee_2[0],a
 446  0098  0F00     R  	mov a,high offset _gotoLowBatWaring_2
 446  0099  0080     E  	mov _doBee_2[1],a
 446  009A  0700     R  	mov a,_gotoLowBatWaring_2[5]
 446  009B  2000     E  	call _doBee
 447  009C              #line 447 "G:\workspace\client\利仁电气\software\NCR\ncr\ncr.c"
 447  009C  3C20        	sz [32].0
 447  009D  2800     R  	jmp _L118
 447  009E              _L131:
 448  009E              #line 448 "G:\workspace\client\利仁电气\software\NCR\ncr\ncr.c"
 448  009E  0F0A        	mov a,10
 448  009F  0080     E  	mov _delay_2[0],a
 448  00A0  1F00     E  	clr _delay_2[1]
 448  00A1  1F00     E  	clr _delay_2[2]
 448  00A2  1F00     E  	clr _delay_2[3]
 448  00A3  2000     E  	call _delay
 449  00A4              #line 449 "G:\workspace\client\利仁电气\software\NCR\ncr\ncr.c"
 449  00A4  0F02        	mov a,2
 449  00A5  4085        	mov [133],a
 450  00A6              #line 450 "G:\workspace\client\利仁电气\software\NCR\ncr\ncr.c"
 450  00A6  2800     R  	jmp _L102
 450  00A7              _L118:
 453  00A7              #line 453 "G:\workspace\client\利仁电气\software\NCR\ncr\ncr.c"
 453  00A7  3B94        	snz [20].7
 453  00A8  2800     R  	jmp _L119
 453  00A9              _L132:
 454  00A9              #line 454 "G:\workspace\client\利仁电气\software\NCR\ncr\ncr.c"
 454  00A9  0F05        	mov a,5
 454  00AA  0080     E  	mov _delay_2[0],a
 454  00AB  1F00     E  	clr _delay_2[1]
 454  00AC  1F00     E  	clr _delay_2[2]
 454  00AD  1F00     E  	clr _delay_2[3]
 454  00AE  2000     E  	call _delay
 455  00AF              #line 455 "G:\workspace\client\利仁电气\software\NCR\ncr\ncr.c"
 455  00AF  5F05        	clr [133]
 456  00B0              #line 456 "G:\workspace\client\利仁电气\software\NCR\ncr\ncr.c"
 456  00B0  2800     R  	jmp _L102
文件：ncr.c        编译器版本 HGASM 0202 页次24

 456  00B1              _L119:
 459  00B1              #line 459 "G:\workspace\client\利仁电气\software\NCR\ncr\ncr.c"
 459  00B1  0F23        	mov a,35
 459  00B2  0080     E  	mov _delay_2[0],a
 459  00B3  1F00     E  	clr _delay_2[1]
 459  00B4  1F00     E  	clr _delay_2[2]
 459  00B5  1F00     E  	clr _delay_2[3]
 459  00B6  2000     E  	call _delay
 460  00B7              #line 460 "G:\workspace\client\利仁电气\software\NCR\ncr\ncr.c"
 460  00B7  1480     R  	inc _gotoLowBatWaring_2[2]
 461  00B8              #line 461 "G:\workspace\client\利仁电气\software\NCR\ncr\ncr.c"
 461  00B8  0F95        	mov a,149
 461  00B9  0200     R  	sub a,_gotoLowBatWaring_2[2]
 461  00BA  3C0A        	sz c
 461  00BB  2800     R  	jmp _L120
 461  00BC  1F00     R  	clr _gotoLowBatWaring_2[2]
 461  00BD              _L120:
 462  00BD              #line 462 "G:\workspace\client\利仁电气\software\NCR\ncr\ncr.c"
 462  00BD  1480     R  	inc _gotoLowBatWaring_2[0]
 462  00BE  3D0A        	sz z
 462  00BF  1480     R  	inc _gotoLowBatWaring_2[1]
 464  00C0              #line 464 "G:\workspace\client\利仁电气\software\NCR\ncr\ncr.c"
 464  00C0  2800     R  	jmp _L121
 464  00C1              _L102:
 466  00C1              #line 466 "G:\workspace\client\利仁电气\software\NCR\ncr\ncr.c"
 466  00C1  0F00        	mov a,0
 466  00C2  2000     E  	call _toneMode
 467  00C3              #line 467 "G:\workspace\client\利仁电气\software\NCR\ncr\ncr.c"
 467  00C3  3228        	set [40].4
 467  00C4  0003        	ret
 467  00C5              _gotoLowBatWaring endp
 467  00C5              #line 467 "G:\workspace\client\利仁电气\software\NCR\ncr\ncr.c"
 467  00C5              #pragma debug scope 1 1
 467  00C5              ___pd equ [53]
 467  00C5              public _chxPair
 467  00C5              #pragma debug scope 9 1
 470  00C5              #line 470 "G:\workspace\client\利仁电气\software\NCR\ncr\ncr.c"
 470  0000              _chxPair .section 'code'
 470  0000              _chxPair proc
 470  0000              public _chxPair_2
 470  0000  0003[           local _chxPair_2 db 3 dup(?)	; 1,2
            00
            ]
 470  0000  0080     R  	mov _chxPair_2[1],a
 470  0001              #pragma debug variable 8 9 _chxPair_2+1 "ch"
 470  0001              #pragma debug variable 8 9 _chxPair_2+0 "i"
 470  0001              #pragma debug variable 8 9 _chxPair_2+2 "re"
 473  0001              #line 473 "G:\workspace\client\利仁电气\software\NCR\ncr\ncr.c"
 473  0001  4702        	mov a,[130]
 473  0002  0600     R  	and a,_chxPair_2[1]
 473  0003  0080     E  	mov ra,a
 473  0004  1E00     E  	snz ra
 473  0005  2800     R  	jmp _L134
 475  0006              #line 475 "G:\workspace\client\利仁电气\software\NCR\ncr\ncr.c"
 475  0006  2000     R  	call _holdRestButtonPush
 476  0007              #line 476 "G:\workspace\client\利仁电气\software\NCR\ncr\ncr.c"
 476  0007  0F02        	mov a,2
 476  0008  0080     E  	mov ra,a
 476  0009  2800     R  	jmp _L135
 476  000A              _L134:
文件：ncr.c        编译器版本 HGASM 0202 页次25

 478  000A              #line 478 "G:\workspace\client\利仁电气\software\NCR\ncr\ncr.c"
 478  000A  32A9        	set [41].5
 480  000B              #line 480 "G:\workspace\client\利仁电气\software\NCR\ncr\ncr.c"
 480  000B  0700     R  	mov a,_chxPair_2[0]
 480  000C  2000     E  	call _pair
 480  000D  0080     R  	mov _chxPair_2[2],a
 481  000E              #line 481 "G:\workspace\client\利仁电气\software\NCR\ncr\ncr.c"
 481  000E  1080     R  	sz _chxPair_2[2]
 481  000F  2800     R  	jmp _L136
 482  0010              #line 482 "G:\workspace\client\利仁电气\software\NCR\ncr\ncr.c"
 482  0010  3128        	set [40].2
 483  0011              #line 483 "G:\workspace\client\利仁电气\software\NCR\ncr\ncr.c"
 483  0011  34B5        	clr [53].1
 484  0012              #line 484 "G:\workspace\client\利仁电气\software\NCR\ncr\ncr.c"
 484  0012  0FC8        	mov a,-56
 484  0013  0080     E  	mov _beep_2[0],a
 484  0014  1F00     E  	clr _beep_2[1]
 484  0015  0F05        	mov a,5
 484  0016  2000     E  	call _beep
 485  0017              #line 485 "G:\workspace\client\利仁电气\software\NCR\ncr\ncr.c"
 485  0017  0F0A        	mov a,10
 485  0018  0080     E  	mov _delay_2[0],a
 485  0019  1F00     E  	clr _delay_2[1]
 485  001A  1F00     E  	clr _delay_2[2]
 485  001B  1F00     E  	clr _delay_2[3]
 485  001C  2000     E  	call _delay
 486  001D              #line 486 "G:\workspace\client\利仁电气\software\NCR\ncr\ncr.c"
 486  001D  0FC8        	mov a,-56
 486  001E  0080     E  	mov _beep_2[0],a
 486  001F  1F00     E  	clr _beep_2[1]
 486  0020  0F05        	mov a,5
 486  0021  2000     E  	call _beep
 487  0022              #line 487 "G:\workspace\client\利仁电气\software\NCR\ncr\ncr.c"
 487  0022  3528        	clr [40].2
 487  0023  2800     R  	jmp _L137
 487  0024              _L136:
 489  0024              #line 489 "G:\workspace\client\利仁电气\software\NCR\ncr\ncr.c"
 489  0024  1700     R  	sdza _chxPair_2[2]
 489  0025  2800     R  	jmp _L137
 489  0026              #pragma debug scope 10 9
 489  0026              ;begin block, line: 489.-1
 489  0026              #pragma debug scope 11 10
 489  0026              ;begin block, line: 489.-1
 490  0026              #line 490 "G:\workspace\client\利仁电气\software\NCR\ncr\ncr.c"
 490  0026  0700     R  	mov a,_chxPair_2[1]
 490  0027  4582        	orm a,[130]
 492  0028              #line 492 "G:\workspace\client\利仁电气\software\NCR\ncr\ncr.c"
 492  0028  4702        	mov a,[130]
 492  0029  0080     E  	mov _zh_memoryWriteByte_2[0],a
 492  002A  0F00        	mov a,0
 492  002B  2000     E  	call _zh_memoryWriteByte
 493  002C              #line 493 "G:\workspace\client\利仁电气\software\NCR\ncr\ncr.c"
 493  002C  0FD0        	mov a,-48
 493  002D  0080     E  	mov _delay_2[0],a
 493  002E  0F07        	mov a,7
 493  002F  0080     E  	mov _delay_2[1],a
 493  0030  1F00     E  	clr _delay_2[2]
 493  0031  1F00     E  	clr _delay_2[3]
 493  0032  2000     E  	call _delay
 493  0033  0F01        	mov a,1
文件：ncr.c        编译器版本 HGASM 0202 页次26

 493  0034  0080     E  	mov ra,a
 493  0035  2800     R  	jmp _L135
 493  0036              _L137:
 493  0036              #pragma debug scope 10 9
 493  0036              #pragma debug scope 9 1
 497  0036              #line 497 "G:\workspace\client\利仁电气\software\NCR\ncr\ncr.c"
 497  0036  1F00     E  	clr ra
 497  0037              _L135:
 498  0037              #line 498 "G:\workspace\client\利仁电气\software\NCR\ncr\ncr.c"
 498  0037  0700     E  	mov a,ra
 498  0038  0003        	ret
 498  0039              _chxPair endp
 498  0039              #line 498 "G:\workspace\client\利仁电气\software\NCR\ncr\ncr.c"
 498  0039              #pragma debug scope 1 1
 498  0039              public _pair15sLoop
 498  0039              #pragma debug scope 12 1
 500  0039              #line 500 "G:\workspace\client\利仁电气\software\NCR\ncr\ncr.c"
 500  0000              _pair15sLoop .section 'code'
 500  0000              _pair15sLoop proc
 508  0000              #line 508 "G:\workspace\client\利仁电气\software\NCR\ncr\ncr.c"
 508  0000  3528        	clr [40].2
 509  0001              #line 509 "G:\workspace\client\利仁电气\software\NCR\ncr\ncr.c"
 509  0001  0F0A        	mov a,10
 509  0002  0080     E  	mov _delay_2[0],a
 509  0003  1F00     E  	clr _delay_2[1]
 509  0004  1F00     E  	clr _delay_2[2]
 509  0005  1F00     E  	clr _delay_2[3]
 509  0006  2000     E  	call _delay
 514  0007              #line 514 "G:\workspace\client\利仁电气\software\NCR\ncr\ncr.c"
 514  0007  1F00     R  	clr _chxPair_2[0]
 514  0008  0F80        	mov a,128
 514  0009  2000     R  	call _chxPair
 514  000A  0080     E  	mov ra,a
 515  000B              #line 515 "G:\workspace\client\利仁电气\software\NCR\ncr\ncr.c"
 515  000B  0F01        	mov a,1
 515  000C  0200     E  	sub a,ra
 515  000D  3C0A        	sz c
 515  000E  2800     R  	jmp _L141
 520  000F              #line 520 "G:\workspace\client\利仁电气\software\NCR\ncr\ncr.c"
 520  000F  0F01        	mov a,1
 520  0010  0080     R  	mov _chxPair_2[0],a
 520  0011  0F40        	mov a,64
 520  0012  2000     R  	call _chxPair
 520  0013  0080     E  	mov ra,a
 521  0014              #line 521 "G:\workspace\client\利仁电气\software\NCR\ncr\ncr.c"
 521  0014  0F01        	mov a,1
 521  0015  0200     E  	sub a,ra
 521  0016  3C0A        	sz c
 521  0017  2800     R  	jmp _L141
 526  0018              #line 526 "G:\workspace\client\利仁电气\software\NCR\ncr\ncr.c"
 526  0018  0F02        	mov a,2
 526  0019  0080     R  	mov _chxPair_2[0],a
 526  001A  0F20        	mov a,32
 526  001B  2000     R  	call _chxPair
 526  001C  0080     E  	mov ra,a
 527  001D              #line 527 "G:\workspace\client\利仁电气\software\NCR\ncr\ncr.c"
 527  001D  0F01        	mov a,1
 527  001E  0200     E  	sub a,ra
 527  001F  3C0A        	sz c
 527  0020  2800     R  	jmp _L141
文件：ncr.c        编译器版本 HGASM 0202 页次27

 532  0021              #line 532 "G:\workspace\client\利仁电气\software\NCR\ncr\ncr.c"
 532  0021  0F03        	mov a,3
 532  0022  0080     R  	mov _chxPair_2[0],a
 532  0023  0F10        	mov a,16
 532  0024  2000     R  	call _chxPair
 532  0025  0080     E  	mov ra,a
 533  0026              #line 533 "G:\workspace\client\利仁电气\software\NCR\ncr\ncr.c"
 533  0026  0F01        	mov a,1
 533  0027  0200     E  	sub a,ra
 533  0028  3C0A        	sz c
 533  0029  2800     R  	jmp _L141
 538  002A              #line 538 "G:\workspace\client\利仁电气\software\NCR\ncr\ncr.c"
 538  002A  0F04        	mov a,4
 538  002B  0080     R  	mov _chxPair_2[0],a
 538  002C  0F08        	mov a,8
 538  002D  2000     R  	call _chxPair
 538  002E  0080     E  	mov ra,a
 539  002F              #line 539 "G:\workspace\client\利仁电气\software\NCR\ncr\ncr.c"
 539  002F  0F01        	mov a,1
 539  0030  0200     E  	sub a,ra
 539  0031  3C0A        	sz c
 539  0032  2800     R  	jmp _L141
 544  0033              #line 544 "G:\workspace\client\利仁电气\software\NCR\ncr\ncr.c"
 544  0033  0F05        	mov a,5
 544  0034  0080     R  	mov _chxPair_2[0],a
 544  0035  0F04        	mov a,4
 544  0036  2000     R  	call _chxPair
 544  0037              _L141:
 554  0037              #line 554 "G:\workspace\client\利仁电气\software\NCR\ncr\ncr.c"
 554  0037  3128        	set [40].2
 554  0038  0003        	ret
 554  0039              _pair15sLoop endp
 554  0039              #line 554 "G:\workspace\client\利仁电气\software\NCR\ncr\ncr.c"
 554  0039              #pragma debug scope 1 1
 554  0039              public _clearAllChannel
 554  0039              #pragma debug scope 13 1
 558  0039              #line 558 "G:\workspace\client\利仁电气\software\NCR\ncr\ncr.c"
 558  0000              _clearAllChannel .section 'code'
 558  0000              _clearAllChannel proc
 558  0000  0005[           local _clearAllChannel_2 db 5 dup(?)	; 0,5
            00
            ]
 558  0005              #pragma debug variable 12 13 _clearAllChannel_2+2 "cnt"
 558  0005              #pragma debug variable 8 13 _clearAllChannel_2+0 "flag"
 558  0005              #pragma debug variable 8 13 _clearAllChannel_2+4 "index"
 558  0005              #pragma debug variable 8 13 _clearAllChannel_2+1 "clearAllCnt"
 566  0005              #line 566 "G:\workspace\client\利仁电气\software\NCR\ncr\ncr.c"
 566  0000  3035        	set [53].0
 567  0001              #line 567 "G:\workspace\client\利仁电气\software\NCR\ncr\ncr.c"
 567  0001  0FE8        	mov a,-24
 567  0002  0080     E  	mov _delay_2[0],a
 567  0003  0F03        	mov a,3
 567  0004  0080     E  	mov _delay_2[1],a
 567  0005  1F00     E  	clr _delay_2[2]
 567  0006  1F00     E  	clr _delay_2[3]
 567  0007  2000     E  	call _delay
 568  0008              #line 568 "G:\workspace\client\利仁电气\software\NCR\ncr\ncr.c"
 568  0008  36A8        	clr [40].5
 569  0009              #line 569 "G:\workspace\client\利仁电气\software\NCR\ncr\ncr.c"
 569  0009  0FE8        	mov a,-24
文件：ncr.c        编译器版本 HGASM 0202 页次28

 569  000A  0080     E  	mov _delay_2[0],a
 569  000B  0F03        	mov a,3
 569  000C  0080     E  	mov _delay_2[1],a
 569  000D  1F00     E  	clr _delay_2[2]
 569  000E  1F00     E  	clr _delay_2[3]
 569  000F  2000     E  	call _delay
 570  0010              #line 570 "G:\workspace\client\利仁电气\software\NCR\ncr\ncr.c"
 570  0010  3435        	clr [53].0
 564  0011              #line 564 "G:\workspace\client\利仁电气\software\NCR\ncr\ncr.c"
 564  0011  1F00     R  	clr _clearAllChannel_2[1]
 562  0012              #line 562 "G:\workspace\client\利仁电气\software\NCR\ncr\ncr.c"
 562  0012  1F00     R  	clr _clearAllChannel_2[4]
 561  0013              #line 561 "G:\workspace\client\利仁电气\software\NCR\ncr\ncr.c"
 561  0013  1F00     R  	clr _clearAllChannel_2[0]
 559  0014              #line 559 "G:\workspace\client\利仁电气\software\NCR\ncr\ncr.c"
 559  0014  1F00     R  	clr _clearAllChannel_2[2]
 559  0015  1F00     R  	clr _clearAllChannel_2[3]
 559  0016              _L157:
 572  0016              #line 572 "G:\workspace\client\利仁电气\software\NCR\ncr\ncr.c"
 572  0016  3E14        	sz [20].4
 572  0017  2800     R  	jmp _L151
 573  0018              #line 573 "G:\workspace\client\利仁电气\software\NCR\ncr\ncr.c"
 573  0018  1E00     R  	snz _clearAllChannel_2[0]
 573  0019  2800     R  	jmp _L159
 577  001A              #line 577 "G:\workspace\client\利仁电气\software\NCR\ncr\ncr.c"
 577  001A  1480     R  	inc _clearAllChannel_2[2]
 577  001B  3D0A        	sz z
 577  001C  1480     R  	inc _clearAllChannel_2[3]
 577  001D  0F01        	mov a,1
 577  001E  0080     R  	mov _clearAllChannel_2[0],a
 577  001F  2800     R  	jmp _L152
 577  0020              _L151:
 579  0020              #line 579 "G:\workspace\client\利仁电气\software\NCR\ncr\ncr.c"
 579  0020  3A14        	snz [20].4
 579  0021  2800     R  	jmp _L152
 580  0022              #line 580 "G:\workspace\client\利仁电气\software\NCR\ncr\ncr.c"
 580  0022  1700     R  	sdza _clearAllChannel_2[0]
 580  0023  2800     R  	jmp _L161
 582  0024              #line 582 "G:\workspace\client\利仁电气\software\NCR\ncr\ncr.c"
 582  0024  0F9C        	mov a,156
 582  0025  0300     R  	add a,_clearAllChannel_2[2]
 582  0026  0080     E  	mov _abs_2[0],a
 582  0027  0FFF        	mov a,255
 582  0028  1300     R  	adc a,_clearAllChannel_2[3]
 582  0029  0080     E  	mov _abs_2[1],a
 582  002A  2000     E  	call _abs
 582  002B  0F13        	mov a,19
 582  002C  0200     E  	sub a,ra
 582  002D  0F00        	mov a,0
 582  002E  1200     E  	sbc a,rb
 582  002F  3F8A        	sz sc
 582  0030  2800     R  	jmp _L161
 583  0031              #line 583 "G:\workspace\client\利仁电气\software\NCR\ncr\ncr.c"
 583  0031  1480     R  	inc _clearAllChannel_2[4]
 583  0032  2800     R  	jmp _L161
 583  0033              _L159:
 574  0033              #line 574 "G:\workspace\client\利仁电气\software\NCR\ncr\ncr.c"
 574  0033  0F01        	mov a,1
 574  0034  0080     R  	mov _clearAllChannel_2[0],a
 575  0035              #line 575 "G:\workspace\client\利仁电气\software\NCR\ncr\ncr.c"
文件：ncr.c        编译器版本 HGASM 0202 页次29

 575  0035  1F00     R  	clr _clearAllChannel_2[2]
 575  0036  1F00     R  	clr _clearAllChannel_2[3]
 575  0037  2800     R  	jmp _L152
 575  0038              _L161:
 581  0038              #line 581 "G:\workspace\client\利仁电气\software\NCR\ncr\ncr.c"
 581  0038  1F00     R  	clr _clearAllChannel_2[0]
 581  0039              _L152:
 588  0039              #line 588 "G:\workspace\client\利仁电气\software\NCR\ncr\ncr.c"
 588  0039  1480     R  	inc _clearAllChannel_2[1]
 590  003A              #line 590 "G:\workspace\client\利仁电气\software\NCR\ncr\ncr.c"
 590  003A  1080     R  	sz _clearAllChannel_2[4]
 590  003B  2800     R  	jmp _L153
 591  003C              #line 591 "G:\workspace\client\利仁电气\software\NCR\ncr\ncr.c"
 591  003C  0F04        	mov a,4
 591  003D  0200     R  	sub a,_clearAllChannel_2[1]
 591  003E  380A        	snz c
 591  003F  2800     R  	jmp _L154
 592  0040              #line 592 "G:\workspace\client\利仁电气\software\NCR\ncr\ncr.c"
 592  0040  30B5        	set [53].1
 593  0041              #line 593 "G:\workspace\client\利仁电气\software\NCR\ncr\ncr.c"
 593  0041  0F03        	mov a,3
 593  0042  2000     E  	call _toneMode
 594  0043              #line 594 "G:\workspace\client\利仁电气\software\NCR\ncr\ncr.c"
 594  0043  3428        	clr [40].0
 594  0044  2800     R  	jmp _L158
 594  0045              _L154:
 595  0045              #line 595 "G:\workspace\client\利仁电气\software\NCR\ncr\ncr.c"
 595  0045  0F63        	mov a,99
 595  0046  0200     R  	sub a,_clearAllChannel_2[1]
 595  0047  380A        	snz c
 595  0048  2800     R  	jmp _L162
 596  0049              #line 596 "G:\workspace\client\利仁电气\software\NCR\ncr\ncr.c"
 596  0049  0F00        	mov a,0
 596  004A  2000     E  	call _toneMode
 597  004B              #line 597 "G:\workspace\client\利仁电气\software\NCR\ncr\ncr.c"
 597  004B  34B5        	clr [53].1
 598  004C              #line 598 "G:\workspace\client\利仁电气\software\NCR\ncr\ncr.c"
 598  004C  3028        	set [40].0
 598  004D  2800     R  	jmp _L158
 598  004E              _L153:
 603  004E              #line 603 "G:\workspace\client\利仁电气\software\NCR\ncr\ncr.c"
 603  004E  0F00        	mov a,0
 603  004F  2000     E  	call _toneMode
 604  0050              #line 604 "G:\workspace\client\利仁电气\software\NCR\ncr\ncr.c"
 604  0050  3028        	set [40].0
 607  0051              #line 607 "G:\workspace\client\利仁电气\software\NCR\ncr\ncr.c"
 607  0051  0F02        	mov a,2
 607  0052  0200     R  	sub a,_clearAllChannel_2[4]
 607  0053  380A        	snz c
 607  0054  2800     R  	jmp _L156
 607  0055              _L158:
 609  0055              #line 609 "G:\workspace\client\利仁电气\software\NCR\ncr\ncr.c"
 609  0055  0F0A        	mov a,10
 609  0056  0080     E  	mov _delay_2[0],a
 609  0057  1F00     E  	clr _delay_2[1]
 609  0058  1F00     E  	clr _delay_2[2]
 609  0059  1F00     E  	clr _delay_2[3]
 609  005A  2000     E  	call _delay
 610  005B              #line 610 "G:\workspace\client\利仁电气\software\NCR\ncr\ncr.c"
 610  005B  2800     R  	jmp _L157
文件：ncr.c        编译器版本 HGASM 0202 页次30

 610  005C              _L156:
 611  005C              #line 611 "G:\workspace\client\利仁电气\software\NCR\ncr\ncr.c"
 611  005C  0FE8        	mov a,-24
 611  005D  0080     E  	mov _delay_2[0],a
 611  005E  0F03        	mov a,3
 611  005F  0080     E  	mov _delay_2[1],a
 611  0060  1F00     E  	clr _delay_2[2]
 611  0061  1F00     E  	clr _delay_2[3]
 611  0062  2000     E  	call _delay
 612  0063              #line 612 "G:\workspace\client\利仁电气\software\NCR\ncr\ncr.c"
 612  0063  32A8        	set [40].5
 613  0064              #line 613 "G:\workspace\client\利仁电气\software\NCR\ncr\ncr.c"
 613  0064  5F02        	clr [130]
 614  0065              #line 614 "G:\workspace\client\利仁电气\software\NCR\ncr\ncr.c"
 614  0065  5F03        	clr [131]
 614  0066  2800     R  	jmp _L167
 614  0067              _L162:
 600  0067              #line 600 "G:\workspace\client\利仁电气\software\NCR\ncr\ncr.c"
 600  0067  1F00     R  	clr _clearAllChannel_2[1]
 600  0068  2800     R  	jmp _L158
 600  0069              _L167:
 600  0069  0003        	ret
 600  006A              _clearAllChannel endp
 600  006A              #line 600 "G:\workspace\client\利仁电气\software\NCR\ncr\ncr.c"
 600  006A              #pragma debug scope 1 1
 600  006A              public _reConnect
 600  006A              #pragma debug scope 14 1
 617  006A              #line 617 "G:\workspace\client\利仁电气\software\NCR\ncr\ncr.c"
 617  0000              _reConnect .section 'code'
 617  0000              _reConnect proc
 618  0000              #line 618 "G:\workspace\client\利仁电气\software\NCR\ncr\ncr.c"
 618  0000  4702        	mov a,[130]
 618  0001  0080     E  	mov ra,a
 620  0002              #line 620 "G:\workspace\client\利仁电气\software\NCR\ncr\ncr.c"
 620  0002  0714        	mov a,[20]
 620  0003  0E3F        	and a,63
 620  0004  0080     E  	mov rb,a
 620  0005  1E00     E  	snz rb
 620  0006  2800     R  	jmp _L168
 623  0007              #line 623 "G:\workspace\client\利仁电气\software\NCR\ncr\ncr.c"
 623  0007  3E94        	sz [20].5
 623  0008  2800     R  	jmp _L171
 624  0009              #line 624 "G:\workspace\client\利仁电气\software\NCR\ncr\ncr.c"
 624  0009  7382        	set [130].7
 624  000A              _L171:
 626  000A              #line 626 "G:\workspace\client\利仁电气\software\NCR\ncr\ncr.c"
 626  000A  3E14        	sz [20].4
 626  000B  2800     R  	jmp _L172
 627  000C              #line 627 "G:\workspace\client\利仁电气\software\NCR\ncr\ncr.c"
 627  000C  7302        	set [130].6
 627  000D              _L172:
 629  000D              #line 629 "G:\workspace\client\利仁电气\software\NCR\ncr\ncr.c"
 629  000D  3D94        	sz [20].3
 629  000E  2800     R  	jmp _L173
 630  000F              #line 630 "G:\workspace\client\利仁电气\software\NCR\ncr\ncr.c"
 630  000F  7282        	set [130].5
 630  0010              _L173:
 632  0010              #line 632 "G:\workspace\client\利仁电气\software\NCR\ncr\ncr.c"
 632  0010  3C94        	sz [20].1
 632  0011  2800     R  	jmp _L174
文件：ncr.c        编译器版本 HGASM 0202 页次31

 633  0012              #line 633 "G:\workspace\client\利仁电气\software\NCR\ncr\ncr.c"
 633  0012  7202        	set [130].4
 633  0013              _L174:
 635  0013              #line 635 "G:\workspace\client\利仁电气\software\NCR\ncr\ncr.c"
 635  0013  3D14        	sz [20].2
 635  0014  2800     R  	jmp _L175
 636  0015              #line 636 "G:\workspace\client\利仁电气\software\NCR\ncr\ncr.c"
 636  0015  7182        	set [130].3
 636  0016              _L175:
 638  0016              #line 638 "G:\workspace\client\利仁电气\software\NCR\ncr\ncr.c"
 638  0016  3C14        	sz [20].0
 638  0017  2800     R  	jmp _L176
 639  0018              #line 639 "G:\workspace\client\利仁电气\software\NCR\ncr\ncr.c"
 639  0018  7102        	set [130].2
 639  0019              _L176:
 642  0019              #line 642 "G:\workspace\client\利仁电气\software\NCR\ncr\ncr.c"
 642  0019  0700     E  	mov a,ra
 642  001A  4202        	sub a,[130]
 642  001B  3D0A        	sz z
 642  001C  2800     R  	jmp _L168
 643  001D              #line 643 "G:\workspace\client\利仁电气\software\NCR\ncr\ncr.c"
 643  001D  4702        	mov a,[130]
 643  001E  0080     E  	mov _zh_memoryWriteByte_2[0],a
 643  001F  0F00        	mov a,0
 643  0020  2000     E  	call _zh_memoryWriteByte
 643  0021              _L168:
 643  0021  0003        	ret
 643  0022              _reConnect endp
 643  0022              #line 643 "G:\workspace\client\利仁电气\software\NCR\ncr\ncr.c"
 643  0022              #pragma debug scope 1 1
 643  0022              ___hircc equ [44]
 643  0022              ___sledc0 equ [56]
 643  0022              ___sledc1 equ [57]
 643  0022              ___status equ [10]
 643  0022              public _main
 643  0022              #pragma debug scope 15 1
 648  0022              #line 648 "G:\workspace\client\利仁电气\software\NCR\ncr\ncr.c"
 648  0022              IFDEF WITH_DEFAULT_STARTUP
 648  0022              extern _main_initial0:near
 648  0022              extern _main_startup:near
 648  0022              ENDIF
 648  0022              
 648  0022              ROMBANK 0 @start
 648  0000              @start .section com_l 'code'
 648  0000              _main_startup1:
 648  0000              @start .section com_e 'code'
 648  0000  2800     R  	jmp _main
 648  0001              
 648  0000              _main .section 'code'
 648  0000              _main proc
 649  0000              #line 649 "G:\workspace\client\利仁电气\software\NCR\ncr\ncr.c"
 649  0000  302C        	set [44].0
 649  0001              _L180:
 650  0001              #line 650 "G:\workspace\client\利仁电气\software\NCR\ncr\ncr.c"
 650  0001  38AC        	snz [44].1
 650  0002  2800     R  	jmp _L180
 651  0003              #line 651 "G:\workspace\client\利仁电气\software\NCR\ncr\ncr.c"
 651  0003  1F2B        	clr [43]
 652  0004              #line 652 "G:\workspace\client\利仁电气\software\NCR\ncr\ncr.c"
 652  0004  1FB8        	set [56]
文件：ncr.c        编译器版本 HGASM 0202 页次32

 653  0005              #line 653 "G:\workspace\client\利仁电气\software\NCR\ncr\ncr.c"
 653  0005  1FB9        	set [57]
 657  0006              #line 657 "G:\workspace\client\利仁电气\software\NCR\ncr\ncr.c"
 657  0006  2000     E  	call _statusLowbatLedConfig
 658  0007              #line 658 "G:\workspace\client\利仁电气\software\NCR\ncr\ncr.c"
 658  0007  2000     E  	call _ncrGPIOConfig
 659  0008              #line 659 "G:\workspace\client\利仁电气\software\NCR\ncr\ncr.c"
 659  0008  2000     E  	call _ncrHalKeyConfig
 662  0009              #line 662 "G:\workspace\client\利仁电气\software\NCR\ncr\ncr.c"
 662  0009  2000     E  	call _ptmtToneConfig
 663  000A              #line 663 "G:\workspace\client\利仁电气\software\NCR\ncr\ncr.c"
 663  000A  0F00        	mov a,0
 663  000B  2000     E  	call _zh_memoryReadByte
 663  000C  0080     E  	mov ra,a
 663  000D  0700     E  	mov a,ra
 663  000E  4082        	mov [130],a
 666  000F              #line 666 "G:\workspace\client\利仁电气\software\NCR\ncr\ncr.c"
 666  000F  3A8A        	snz [10].5
 666  0010  2800     R  	jmp _L181
 667  0011              #line 667 "G:\workspace\client\利仁电气\software\NCR\ncr\ncr.c"
 667  0011  5480        	inc [128]
 667  0012  3D0A        	sz z
 667  0013  5481        	inc [129]
 668  0014              #line 668 "G:\workspace\client\利仁电气\software\NCR\ncr\ncr.c"
 668  0014  4700        	mov a,[128]
 668  0015  0C28        	xor a,40
 668  0016  4501        	or a,[129]
 668  0017  390A        	snz z
 668  0018  2800     R  	jmp _L182
 669  0019              #line 669 "G:\workspace\client\利仁电气\software\NCR\ncr\ncr.c"
 669  0019  2000     R  	call _statusLEDFlush
 669  001A              _L182:
 673  001A              #line 673 "G:\workspace\client\利仁电气\software\NCR\ncr\ncr.c"
 673  001A  3D20        	sz [32].2
 673  001B  2800     R  	jmp _L183
 674  001C              #line 674 "G:\workspace\client\利仁电气\software\NCR\ncr\ncr.c"
 674  001C  2000     E  	call _keysPushWaring
 675  001D              #line 675 "G:\workspace\client\利仁电气\software\NCR\ncr\ncr.c"
 675  001D  4702        	mov a,[130]
 675  001E  0AFC        	sub a,252
 675  001F  390A        	snz z
 675  0020  2800     R  	jmp _L184
 676  0021              #line 676 "G:\workspace\client\利仁电气\software\NCR\ncr\ncr.c"
 676  0021  0FC8        	mov a,-56
 676  0022  0080     E  	mov _beep_2[0],a
 676  0023  1F00     E  	clr _beep_2[1]
 676  0024  0F03        	mov a,3
 676  0025  2000     E  	call _beep
 677  0026              #line 677 "G:\workspace\client\利仁电气\software\NCR\ncr\ncr.c"
 677  0026  0F0A        	mov a,10
 677  0027  0080     E  	mov _delay_2[0],a
 677  0028  1F00     E  	clr _delay_2[1]
 677  0029  1F00     E  	clr _delay_2[2]
 677  002A  1F00     E  	clr _delay_2[3]
 677  002B  2000     E  	call _delay
 678  002C              #line 678 "G:\workspace\client\利仁电气\software\NCR\ncr\ncr.c"
 678  002C  0FC8        	mov a,-56
 678  002D  0080     E  	mov _beep_2[0],a
 678  002E  1F00     E  	clr _beep_2[1]
 678  002F  0F03        	mov a,3
文件：ncr.c        编译器版本 HGASM 0202 页次33

 678  0030  2000     E  	call _beep
 679  0031              #line 679 "G:\workspace\client\利仁电气\software\NCR\ncr\ncr.c"
 679  0031  0F0A        	mov a,10
 679  0032  0080     E  	mov _delay_2[0],a
 679  0033  1F00     E  	clr _delay_2[1]
 679  0034  1F00     E  	clr _delay_2[2]
 679  0035  1F00     E  	clr _delay_2[3]
 679  0036  2000     E  	call _delay
 680  0037              #line 680 "G:\workspace\client\利仁电气\software\NCR\ncr\ncr.c"
 680  0037  0FC8        	mov a,-56
 680  0038  0080     E  	mov _beep_2[0],a
 680  0039  1F00     E  	clr _beep_2[1]
 680  003A  0F03        	mov a,3
 680  003B  2000     E  	call _beep
 681  003C              #line 681 "G:\workspace\client\利仁电气\software\NCR\ncr\ncr.c"
 681  003C  0F0A        	mov a,10
 681  003D  0080     E  	mov _delay_2[0],a
 681  003E  1F00     E  	clr _delay_2[1]
 681  003F  1F00     E  	clr _delay_2[2]
 681  0040  1F00     E  	clr _delay_2[3]
 681  0041  2000     E  	call _delay
 682  0042              #line 682 "G:\workspace\client\利仁电气\software\NCR\ncr\ncr.c"
 682  0042  0FC8        	mov a,-56
 682  0043  0080     E  	mov _beep_2[0],a
 682  0044  1F00     E  	clr _beep_2[1]
 682  0045  0F03        	mov a,3
 682  0046  2000     E  	call _beep
 682  0047  2800     R  	jmp _L183
 682  0048              _L184:
 685  0048              #line 685 "G:\workspace\client\利仁电气\software\NCR\ncr\ncr.c"
 685  0048  0FF4        	mov a,-12
 685  0049  0080     E  	mov _delay_2[0],a
 685  004A  0F01        	mov a,1
 685  004B  0080     E  	mov _delay_2[1],a
 685  004C  1F00     E  	clr _delay_2[2]
 685  004D  1F00     E  	clr _delay_2[3]
 685  004E  2000     E  	call _delay
 686  004F              #line 686 "G:\workspace\client\利仁电气\software\NCR\ncr\ncr.c"
 686  004F  2000     R  	call _pair15sLoop
 686  0050              _L183:
 691  0050              #line 691 "G:\workspace\client\利仁电气\software\NCR\ncr\ncr.c"
 691  0050  3DA0        	sz [32].3
 691  0051  2800     R  	jmp _L185
 692  0052              #line 692 "G:\workspace\client\利仁电气\software\NCR\ncr\ncr.c"
 692  0052  2000     E  	call _keysPushWaring
 693  0053              #line 693 "G:\workspace\client\利仁电气\software\NCR\ncr\ncr.c"
 693  0053  2000     R  	call _clearAllChannel
 694  0054              #line 694 "G:\workspace\client\利仁电气\software\NCR\ncr\ncr.c"
 694  0054  1F00     E  	clr _zh_memoryWriteByte_2[0]
 694  0055  0F00        	mov a,0
 694  0056  2000     E  	call _zh_memoryWriteByte
 694  0057              _L185:
 698  0057              #line 698 "G:\workspace\client\利仁电气\software\NCR\ncr\ncr.c"
 698  0057  3F14        	sz [20].6
 698  0058  2800     R  	jmp _L186
 699  0059              #line 699 "G:\workspace\client\利仁电气\software\NCR\ncr\ncr.c"
 699  0059  2000     E  	call _sw1DefaultConfig
 700  005A              #line 700 "G:\workspace\client\利仁电气\software\NCR\ncr\ncr.c"
 700  005A  2000     E  	call _sw2DefaultConfig
 701  005B              #line 701 "G:\workspace\client\利仁电气\software\NCR\ncr\ncr.c"
文件：ncr.c        编译器版本 HGASM 0202 页次34

 701  005B  0F05        	mov a,5
 701  005C  0080     E  	mov _delay_2[0],a
 701  005D  1F00     E  	clr _delay_2[1]
 701  005E  1F00     E  	clr _delay_2[2]
 701  005F  1F00     E  	clr _delay_2[3]
 701  0060  2000     E  	call _delay
 702  0061              #line 702 "G:\workspace\client\利仁电气\software\NCR\ncr\ncr.c"
 702  0061  5084        	sz [132]
 702  0062  2800     R  	jmp _L187
 703  0063              #line 703 "G:\workspace\client\利仁电气\software\NCR\ncr\ncr.c"
 703  0063  0F01        	mov a,1
 703  0064  4084        	mov [132],a
 704  0065              #line 704 "G:\workspace\client\利仁电气\software\NCR\ncr\ncr.c"
 704  0065  3728        	clr [40].6
 705  0066              #line 705 "G:\workspace\client\利仁电气\software\NCR\ncr\ncr.c"
 705  0066  0F05        	mov a,5
 705  0067  0080     E  	mov _delay_2[0],a
 705  0068  1F00     E  	clr _delay_2[1]
 705  0069  1F00     E  	clr _delay_2[2]
 705  006A  1F00     E  	clr _delay_2[3]
 705  006B  2000     E  	call _delay
 706  006C              #line 706 "G:\workspace\client\利仁电气\software\NCR\ncr\ncr.c"
 706  006C  2000     R  	call _gotoWaring
 707  006D              #line 707 "G:\workspace\client\利仁电气\software\NCR\ncr\ncr.c"
 707  006D  0F01        	mov a,1
 707  006E  4086        	mov [134],a
 708  006F              #line 708 "G:\workspace\client\利仁电气\software\NCR\ncr\ncr.c"
 708  006F  4702        	mov a,[130]
 708  0070  0080     E  	mov _zh_memoryWriteByte_2[0],a
 708  0071  0F00        	mov a,0
 708  0072  2000     E  	call _zh_memoryWriteByte
 708  0073  2800     R  	jmp _L187
 708  0074              _L186:
 711  0074              #line 711 "G:\workspace\client\利仁电气\software\NCR\ncr\ncr.c"
 711  0074  5704        	sdza [132]
 711  0075  2800     R  	jmp _L188
 711  0076  5F04        	clr [132]
 711  0077              _L188:
 713  0077              #line 713 "G:\workspace\client\利仁电气\software\NCR\ncr\ncr.c"
 713  0077  2000     E  	call _swGpioClear
 713  0078              _L187:
 716  0078              #line 716 "G:\workspace\client\利仁电气\software\NCR\ncr\ncr.c"
 716  0078  3CA0        	sz [32].1
 716  0079  2800     R  	jmp _L189
 719  007A              #line 719 "G:\workspace\client\利仁电气\software\NCR\ncr\ncr.c"
 719  007A  2000     E  	call _hold30loop
 719  007B              _L189:
 723  007B              #line 723 "G:\workspace\client\利仁电气\software\NCR\ncr\ncr.c"
 723  007B  1114        	swapa [20]
 723  007C  1985        	rr acc
 723  007D  0E07        	and a,07h
 723  007E  0080     E  	mov ra,a
 723  007F  0F01        	mov a,1
 723  0080  0480     E  	xorm a,ra
 723  0081  0F01        	mov a,1
 723  0082  0680     E  	andm a,ra
 726  0083              #line 726 "G:\workspace\client\利仁电气\software\NCR\ncr\ncr.c"
 726  0083  3E14        	sz [20].4
 726  0084  2800     R  	jmp _L190
 727  0085              #line 727 "G:\workspace\client\利仁电气\software\NCR\ncr\ncr.c"
文件：ncr.c        编译器版本 HGASM 0202 页次35

 727  0085  1480     E  	inc ra
 727  0086              _L190:
 729  0086              #line 729 "G:\workspace\client\利仁电气\software\NCR\ncr\ncr.c"
 729  0086  3D94        	sz [20].3
 729  0087  2800     R  	jmp _L191
 730  0088              #line 730 "G:\workspace\client\利仁电气\software\NCR\ncr\ncr.c"
 730  0088  1480     E  	inc ra
 730  0089              _L191:
 732  0089              #line 732 "G:\workspace\client\利仁电气\software\NCR\ncr\ncr.c"
 732  0089  3C94        	sz [20].1
 732  008A  2800     R  	jmp _L192
 733  008B              #line 733 "G:\workspace\client\利仁电气\software\NCR\ncr\ncr.c"
 733  008B  1480     E  	inc ra
 733  008C              _L192:
 735  008C              #line 735 "G:\workspace\client\利仁电气\software\NCR\ncr\ncr.c"
 735  008C  3D14        	sz [20].2
 735  008D  2800     R  	jmp _L193
 736  008E              #line 736 "G:\workspace\client\利仁电气\software\NCR\ncr\ncr.c"
 736  008E  1480     E  	inc ra
 736  008F              _L193:
 738  008F              #line 738 "G:\workspace\client\利仁电气\software\NCR\ncr\ncr.c"
 738  008F  3C14        	sz [20].0
 738  0090  2800     R  	jmp _L194
 739  0091              #line 739 "G:\workspace\client\利仁电气\software\NCR\ncr\ncr.c"
 739  0091  1480     E  	inc ra
 739  0092              _L194:
 742  0092              #line 742 "G:\workspace\client\利仁电气\software\NCR\ncr\ncr.c"
 742  0092  0F01        	mov a,1
 742  0093  0200     E  	sub a,ra
 742  0094  3C0A        	sz c
 742  0095  2800     R  	jmp _L195
 743  0096              #line 743 "G:\workspace\client\利仁电气\software\NCR\ncr\ncr.c"
 743  0096  2000     E  	call _holdLow
 743  0097              _L195:
 748  0097              #line 748 "G:\workspace\client\利仁电气\software\NCR\ncr\ncr.c"
 748  0097  3F94        	sz [20].7
 748  0098  2800     R  	jmp _L196
 749  0099              #line 749 "G:\workspace\client\利仁电气\software\NCR\ncr\ncr.c"
 749  0099  5085        	sz [133]
 749  009A  2800     R  	jmp _L197
 750  009B              #line 750 "G:\workspace\client\利仁电气\software\NCR\ncr\ncr.c"
 750  009B  0F01        	mov a,1
 750  009C  4085        	mov [133],a
 750  009D              _L197:
 753  009D              #line 753 "G:\workspace\client\利仁电气\software\NCR\ncr\ncr.c"
 753  009D  5705        	sdza [133]
 753  009E  2800     R  	jmp _L198
 754  009F              #line 754 "G:\workspace\client\利仁电气\software\NCR\ncr\ncr.c"
 754  009F  2000     R  	call _gotoLowBatWaring
 754  00A0  2800     R  	jmp _L198
 754  00A1              _L196:
 757  00A1              #line 757 "G:\workspace\client\利仁电气\software\NCR\ncr\ncr.c"
 757  00A1  5F05        	clr [133]
 757  00A2              _L198:
 760  00A2              #line 760 "G:\workspace\client\利仁电气\software\NCR\ncr\ncr.c"
 760  00A2  2000     R  	call _reConnect
 760  00A3  2800     R  	jmp _L199
 760  00A4              _L181:
 764  00A4              #line 764 "G:\workspace\client\利仁电气\software\NCR\ncr\ncr.c"
 764  00A4  5602        	siza [130]
文件：ncr.c        编译器版本 HGASM 0202 页次36

 764  00A5  2800     R  	jmp _L200
 765  00A6              #line 765 "G:\workspace\client\利仁电气\software\NCR\ncr\ncr.c"
 765  00A6  5F02        	clr [130]
 766  00A7              #line 766 "G:\workspace\client\利仁电气\software\NCR\ncr\ncr.c"
 766  00A7  1F00     E  	clr _zh_memoryWriteByte_2[0]
 766  00A8  0F00        	mov a,0
 766  00A9  2000     E  	call _zh_memoryWriteByte
 766  00AA              _L200:
 769  00AA              #line 769 "G:\workspace\client\利仁电气\software\NCR\ncr\ncr.c"
 769  00AA  5F00        	clr [128]
 769  00AB  5F01        	clr [129]
 771  00AC              #line 771 "G:\workspace\client\利仁电气\software\NCR\ncr\ncr.c"
 771  00AC  5F03        	clr [131]
 772  00AD              #line 772 "G:\workspace\client\利仁电气\software\NCR\ncr\ncr.c"
 772  00AD  5F04        	clr [132]
 773  00AE              #line 773 "G:\workspace\client\利仁电气\software\NCR\ncr\ncr.c"
 773  00AE  5F05        	clr [133]
 774  00AF              #line 774 "G:\workspace\client\利仁电气\software\NCR\ncr\ncr.c"
 774  00AF  2000     E  	call _powerOnLEDBlink
 774  00B0              _L199:
 778  00B0              #line 778 "G:\workspace\client\利仁电气\software\NCR\ncr\ncr.c"
 778  00B0  2000     R  	call _gotoSleepMode
 778  00B1  2800     R  	jmp $
 778  00B2              _main endp
 778  00B2              
 778  00B2              @dummy endp
 778  00B2              
 778  00B2              #line 778 "G:\workspace\client\利仁电气\software\NCR\ncr\ncr.c"
 778  00B2              #pragma debug scope 1 1
 778  00B2              ___intc0 equ [17]
 778  00B2              ___mfi0 equ [30]
 778  00B2              public _ptmtInterrupt
 778  00B2              #pragma debug scope 16 1
 781  00B2              #line 781 "G:\workspace\client\利仁电气\software\NCR\ncr\ncr.c"
 781  0000              @ptmtInterrupt_code .section at 12 'code'
 781  0000              ifdef INTERRUPT_DELAY
 781  0000              	nop
 781  0000              endif
 781  0000  0080     E  	mov r1,a
 781  0001  070A        	mov a,status
 781  0002              ifndef INTERRUPT_DELAY
 781  0002  0080     E  	mov r2,a
 781  0003              endif
 781  0003  2800     R  	jmp _ptmtInterrupt
 781  0004              #pragma debug scope 1 1
 781  0004              @dummy12 endp
 781  0004              #pragma debug scope 17 1
 781  0000              _ptmtInterrupt .section 'code'
 781  0000              _ptmtInterrupt proc
 781  0000              ifdef INTERRUPT_DELAY
 781  0000              	mov r2,a
 781  0000              endif
 783  0000              #line 783 "G:\workspace\client\利仁电气\software\NCR\ncr\ncr.c"
 783  0000  1700     E  	sdza _waringEnable[0]
 783  0001  2800     R  	jmp _L202
 784  0002              #line 784 "G:\workspace\client\利仁电气\software\NCR\ncr\ncr.c"
 784  0002  1128        	swapa [40]
 784  0003  1885        	rl acc
 784  0004  0E1F        	and a,1fh
 784  0005  0080     E  	mov ra,a
文件：ncr.c        编译器版本 HGASM 0202 页次37

 784  0006  0F01        	mov a,1
 784  0007  0480     E  	xorm a,ra
 784  0008  0F01        	mov a,1
 784  0009  0680     E  	andm a,ra
 784  000A  1100     E  	swapa ra
 784  000B  1985        	rr acc
 784  000C  0EF8        	and a,0f8h
 784  000D  0080     E  	mov ra,a
 784  000E  35A8        	clr [40].3
 784  000F  0700     E  	mov a,ra
 784  0010  05A8        	orm a,[40]
 784  0011  2800     R  	jmp _L203
 784  0012              _L202:
 786  0012              #line 786 "G:\workspace\client\利仁电气\software\NCR\ncr\ncr.c"
 786  0012  35A8        	clr [40].3
 786  0013              _L203:
 789  0013              #line 789 "G:\workspace\client\利仁电气\software\NCR\ncr\ncr.c"
 789  0013  3711        	clr [17].6
 790  0014              #line 790 "G:\workspace\client\利仁电气\software\NCR\ncr\ncr.c"
 790  0014  369E        	clr [30].5
 790  0015  0700     E  	mov a,r2
 790  0016  008A        	mov status,a
 790  0017  0700     E  	mov a,r1
 790  0018  0004        	reti
 790  0019              _ptmtInterrupt endp
 790  0019              
 790  0019              #line 790 "G:\workspace\client\利仁电气\software\NCR\ncr\ncr.c"
 790  0019              #pragma debug scope 1 1
 790  0019              public _ch6TimeStamp
 790  0000              @HCCINIT	.section 'data'
  68  0000              #line 68 "G:\workspace\client\利仁电气\software\NCR\ncr\ncr.c"
  68  0000              @HCCINIT_ch6TimeStamp .section 'data'
  68  0000              _ch6TimeStamp label byte
  68  0000              #pragma debug variable 14 1 _ch6TimeStamp "ch6TimeStamp"
  68  0000              	db 0
  68  0000              @ROMDATA_BASE .section inpage 'code'
  68  0000              	db 0
  68  0001              @HCCINIT_ch6TimeStamp .section 'data'
  68  0001              	db 0
  68  0001              @ROMDATA_BASE .section inpage 'code'
  68  0001              	db 0
  68  0002              @HCCINIT_ch6TimeStamp .section 'data'
  68  0002              	db 0
  68  0001              @ROMDATA_BASE .section inpage 'code'
  68  0001              	db 0
  68  0003              @HCCINIT_ch6TimeStamp .section 'data'
  68  0003              	db 0
  68  0002              @ROMDATA_BASE .section inpage 'code'
  68  0002              	db 0
  68  0004              @HCCINIT_ch6TimeStamp .section 'data'
  68  0004              public _ch5TimeStamp
  67  0004              #line 67 "G:\workspace\client\利仁电气\software\NCR\ncr\ncr.c"
  67  0000              @HCCINIT_ch5TimeStamp .section 'data'
  67  0000              _ch5TimeStamp label byte
  67  0000              #pragma debug variable 14 1 _ch5TimeStamp "ch5TimeStamp"
  67  0000              	db 0
  67  0002              @ROMDATA_BASE .section inpage 'code'
  67  0002              	db 0
  67  0001              @HCCINIT_ch5TimeStamp .section 'data'
  67  0001              	db 0
文件：ncr.c        编译器版本 HGASM 0202 页次38

  67  0003              @ROMDATA_BASE .section inpage 'code'
  67  0003              	db 0
  67  0002              @HCCINIT_ch5TimeStamp .section 'data'
  67  0002              	db 0
  67  0003              @ROMDATA_BASE .section inpage 'code'
  67  0003              	db 0
  67  0003              @HCCINIT_ch5TimeStamp .section 'data'
  67  0003              	db 0
  67  0004              @ROMDATA_BASE .section inpage 'code'
  67  0004              	db 0
  67  0004              @HCCINIT_ch5TimeStamp .section 'data'
  67  0004              public _ch4TimeStamp
  66  0004              #line 66 "G:\workspace\client\利仁电气\software\NCR\ncr\ncr.c"
  66  0000              @HCCINIT_ch4TimeStamp .section 'data'
  66  0000              _ch4TimeStamp label byte
  66  0000              #pragma debug variable 14 1 _ch4TimeStamp "ch4TimeStamp"
  66  0000              	db 0
  66  0004              @ROMDATA_BASE .section inpage 'code'
  66  0004              	db 0
  66  0001              @HCCINIT_ch4TimeStamp .section 'data'
  66  0001              	db 0
  66  0005              @ROMDATA_BASE .section inpage 'code'
  66  0005              	db 0
  66  0002              @HCCINIT_ch4TimeStamp .section 'data'
  66  0002              	db 0
  66  0005              @ROMDATA_BASE .section inpage 'code'
  66  0005              	db 0
  66  0003              @HCCINIT_ch4TimeStamp .section 'data'
  66  0003              	db 0
  66  0006              @ROMDATA_BASE .section inpage 'code'
  66  0006              	db 0
  66  0004              @HCCINIT_ch4TimeStamp .section 'data'
  66  0004              public _ch3TimeStamp
  65  0004              #line 65 "G:\workspace\client\利仁电气\software\NCR\ncr\ncr.c"
  65  0000              @HCCINIT_ch3TimeStamp .section 'data'
  65  0000              _ch3TimeStamp label byte
  65  0000              #pragma debug variable 14 1 _ch3TimeStamp "ch3TimeStamp"
  65  0000              	db 0
  65  0006              @ROMDATA_BASE .section inpage 'code'
  65  0006              	db 0
  65  0001              @HCCINIT_ch3TimeStamp .section 'data'
  65  0001              	db 0
  65  0007              @ROMDATA_BASE .section inpage 'code'
  65  0007              	db 0
  65  0002              @HCCINIT_ch3TimeStamp .section 'data'
  65  0002              	db 0
  65  0007              @ROMDATA_BASE .section inpage 'code'
  65  0007              	db 0
  65  0003              @HCCINIT_ch3TimeStamp .section 'data'
  65  0003              	db 0
  65  0008              @ROMDATA_BASE .section inpage 'code'
  65  0008              	db 0
  65  0004              @HCCINIT_ch3TimeStamp .section 'data'
  65  0004              public _ch2TimeStamp
  64  0004              #line 64 "G:\workspace\client\利仁电气\software\NCR\ncr\ncr.c"
  64  0000              @HCCINIT_ch2TimeStamp .section 'data'
  64  0000              _ch2TimeStamp label byte
  64  0000              #pragma debug variable 14 1 _ch2TimeStamp "ch2TimeStamp"
  64  0000              	db 0
  64  0008              @ROMDATA_BASE .section inpage 'code'
文件：ncr.c        编译器版本 HGASM 0202 页次39

  64  0008              	db 0
  64  0001              @HCCINIT_ch2TimeStamp .section 'data'
  64  0001              	db 0
  64  0009              @ROMDATA_BASE .section inpage 'code'
  64  0009              	db 0
  64  0002              @HCCINIT_ch2TimeStamp .section 'data'
  64  0002              	db 0
  64  0009              @ROMDATA_BASE .section inpage 'code'
  64  0009              	db 0
  64  0003              @HCCINIT_ch2TimeStamp .section 'data'
  64  0003              	db 0
  64  000A              @ROMDATA_BASE .section inpage 'code'
  64  000A              	db 0
  64  0004              @HCCINIT_ch2TimeStamp .section 'data'
  64  0004              public _ch1TimeStamp
  63  0004              #line 63 "G:\workspace\client\利仁电气\software\NCR\ncr\ncr.c"
  63  0000              @HCCINIT_ch1TimeStamp .section 'data'
  63  0000              _ch1TimeStamp label byte
  63  0000              #pragma debug variable 14 1 _ch1TimeStamp "ch1TimeStamp"
  63  0000              	db 0
  63  000A              @ROMDATA_BASE .section inpage 'code'
  63  000A              	db 0
  63  0001              @HCCINIT_ch1TimeStamp .section 'data'
  63  0001              	db 0
  63  000B              @ROMDATA_BASE .section inpage 'code'
  63  000B              	db 0
  63  0002              @HCCINIT_ch1TimeStamp .section 'data'
  63  0002              	db 0
  63  000B              @ROMDATA_BASE .section inpage 'code'
  63  000B              	db 0
  63  0003              @HCCINIT_ch1TimeStamp .section 'data'
  63  0003              	db 0
  63  000C              @ROMDATA_BASE .section inpage 'code'
  63  000C              	db 0
  63  0004              @HCCINIT_ch1TimeStamp .section 'data'
  63  0004              public _systemTicksTimeStamp
  62  0004              #line 62 "G:\workspace\client\利仁电气\software\NCR\ncr\ncr.c"
  62  0000              @HCCINIT_systemTicksTimeStamp .section 'data'
  62  0000              _systemTicksTimeStamp label byte
  62  0000              #pragma debug variable 14 1 _systemTicksTimeStamp "systemTicksTimeStamp"
  62  0000              	db 0
  62  000C              @ROMDATA_BASE .section inpage 'code'
  62  000C              	db 0
  62  0001              @HCCINIT_systemTicksTimeStamp .section 'data'
  62  0001              	db 0
  62  000D              @ROMDATA_BASE .section inpage 'code'
  62  000D              	db 0
  62  0002              @HCCINIT_systemTicksTimeStamp .section 'data'
  62  0002              	db 0
  62  000D              @ROMDATA_BASE .section inpage 'code'
  62  000D              	db 0
  62  0003              @HCCINIT_systemTicksTimeStamp .section 'data'
  62  0003              	db 0
  62  000E              @ROMDATA_BASE .section inpage 'code'
  62  000E              	db 0
  62  0004              @HCCINIT_systemTicksTimeStamp .section 'data'
  62  0004              public _chxTemp
  61  0004              #line 61 "G:\workspace\client\利仁电气\software\NCR\ncr\ncr.c"
  61  0000              @HCCINIT_chxTemp .section 'data'
  61  0000              _chxTemp label byte
文件：ncr.c        编译器版本 HGASM 0202 页次40

  61  0000              #pragma debug variable 8 1 _chxTemp "chxTemp"
  61  0000              	db 0
  61  000E              @ROMDATA_BASE .section inpage 'code'
  61  000E              	db 0
  61  0001              @HCCINIT_chxTemp .section 'data'
  61  0001              #pragma debug struct_end
  61  0001              #pragma debug struct_end
  61  0001              #pragma debug union_end
  61  0001              #pragma debug union_end
  61  0001              #pragma debug variable 43 1 ___status "__status" 1
  61  0001              #pragma debug struct_end
  61  0001              #pragma debug struct_end
  61  0001              #pragma debug union_end
  61  0001              #pragma debug union_end
  61  0001              #pragma debug variable 45 1 ___intc0 "__intc0" 1
  61  0001              #pragma debug struct_end
  61  0001              #pragma debug struct_end
  61  0001              #pragma debug union_end
  61  0001              #pragma debug union_end
  61  0001              #pragma debug variable 47 1 ___pa "__pa" 1
  61  0001              #pragma debug struct_end
  61  0001              #pragma debug struct_end
  61  0001              #pragma debug union_end
  61  0001              #pragma debug union_end
  61  0001              #pragma debug variable 49 1 ___wdtc "__wdtc" 1
  61  0001              #pragma debug struct_end
  61  0001              #pragma debug struct_end
  61  0001              #pragma debug union_end
  61  0001              #pragma debug union_end
  61  0001              #pragma debug variable 51 1 ___mfi0 "__mfi0" 1
  61  0001              #pragma debug struct_end
  61  0001              #pragma debug struct_end
  61  0001              #pragma debug union_end
  61  0001              #pragma debug union_end
  61  0001              #pragma debug variable 53 1 ___pb "__pb" 1
  61  0001              #pragma debug struct_end
  61  0001              #pragma debug struct_end
  61  0001              #pragma debug union_end
  61  0001              #pragma debug union_end
  61  0001              #pragma debug variable 55 1 ___pc "__pc" 1
  61  0001              #pragma debug struct_end
  61  0001              #pragma debug struct_end
  61  0001              #pragma debug union_end
  61  0001              #pragma debug union_end
  61  0001              #pragma debug variable 57 1 ___pcc "__pcc" 1
  61  0001              #pragma debug struct_end
  61  0001              #pragma debug struct_end
  61  0001              #pragma debug union_end
  61  0001              #pragma debug union_end
  61  0001              #pragma debug variable 59 1 ___scc "__scc" 1
  61  0001              #pragma debug struct_end
  61  0001              #pragma debug struct_end
  61  0001              #pragma debug union_end
  61  0001              #pragma debug union_end
  61  0001              #pragma debug variable 61 1 ___hircc "__hircc" 1
  61  0001              #pragma debug struct_end
  61  0001              #pragma debug struct_end
  61  0001              #pragma debug union_end
  61  0001              #pragma debug union_end
  61  0001              #pragma debug variable 63 1 ___pd "__pd" 1
文件：ncr.c        编译器版本 HGASM 0202 页次41

  61  0001              #pragma debug struct_end
  61  0001              #pragma debug struct_end
  61  0001              #pragma debug union_end
  61  0001              #pragma debug union_end
  61  0001              #pragma debug variable 65 1 ___sledc0 "__sledc0" 1
  61  0001              #pragma debug struct_end
  61  0001              #pragma debug struct_end
  61  0001              #pragma debug union_end
  61  0001              #pragma debug union_end
  61  0001              #pragma debug variable 67 1 ___sledc1 "__sledc1" 1
  61  0001              #pragma debug struct_end
  61  0001              #pragma debug struct_end
  61  0001              #pragma debug variable 68 1 _ncr "ncr" 7
  61  0001              
  61  0001              ; output external variables
  61  0001              extern _waringEnable:byte
  61  0001              extern r1:byte
  61  0001              extern r2:byte
 648  0001              #line 648 "G:\workspace\client\利仁电气\software\NCR\ncr\ncr.c"
 648  0000              @code .section at 0 'code'
 648  0000  2800     R  	jmp _main_startup1
 648  0001              
 648  0001              extern _swGpioClear:near
 648  0001              extern _delay_2:byte
 648  0001              extern _delay:near
 648  0001              extern _zh_memoryWriteByte_2:byte
 648  0001              extern _zh_memoryWriteByte:near
 648  0001              extern _doBee_2:byte
 648  0001              extern _doBee:near
 648  0001              extern _keysPushWaring:near
 648  0001              extern _toneMode:near
 648  0001              extern _pair:near
 648  0001              extern _beep_2:byte
 648  0001              extern _beep:near
 648  0001              extern _abs_2:byte
 648  0001              extern _abs:near
 648  0001              extern _statusLowbatLedConfig:near
 648  0001              extern _ncrGPIOConfig:near
 648  0001              extern _ncrHalKeyConfig:near
 648  0001              extern _ptmtToneConfig:near
 648  0001              extern _zh_memoryReadByte:near
 648  0001              extern _sw1DefaultConfig:near
 648  0001              extern _sw2DefaultConfig:near
 648  0001              extern _hold30loop:near
 648  0001              extern _holdLow:near
 648  0001              extern _powerOnLEDBlink:near
 648  0001              
 648  0001              ; 
 648  0001              ; Generated by holtek-gcc v3.19, Mon Oct 21 15:28:05 2019
 648  0001              ; Rebuild 115
 648  0001              ; end of file


        0 Errors, 0