文件：ncr_system.c 编译器版本 HGASM 0202 页次1


   1  0000              ; Generated by holtek-gcc v3.19, Mon Oct 21 15:28:07 2019
   2  0000              ; 
   3  0000              ; Configuration:
   4  0000              ;       with long instruction
   5  0000              ;       Single ROM, Multi-RAM
   6  0000              ;       bits_per_rom_unit:16
   7  0000              ;       with mp1
   8  0000              ;       with tbhp, address(0x9)
   9  0000              ;          Use tabrd-const
  10  0000              ;       
  11  0000              ; SFR address of long-instruction arch:
  12  0000              ;    mp0 = -1,1,0
  13  0000              ;    mp1 = 4,3,2
  14  0000              ;    mp2 = 14,13,12
  15  0000              ;    tbp = 9,7,8
  16  0000              ;    acc = 5
  17  0000              ;    pcl = 6
  18  0000              ;    status = 10
  19  0000              ;    bp = 11
  20  0000              ;    intc = 17
  21  0000              ;       
  22  0000              ;       
  23  0000              ; use 'tabrdc' instead of 'tabrd'
  24  0000              ;       
  25  0000              
  26  0000              #pragma translator "holtek-gcc 4.6.4" "3.19" "build 20130711"
  27  0000              ; Rebuild 115
  28  0000              
  29  0000              ir equ [2]
  30  0000              mp equ [3]
  31  0000              sbp equ [4]
  32  0000              acc equ [5]
  33  0000              bp equ [11]
  34  0000              tblp equ [7]
  35  0000              tbhp equ [9]
  36  0000              status equ [10]
  37  0000              c equ [10].0
  38  0000              ac equ [10].1
  39  0000              z equ [10].2
  40  0000              ov equ [10].3
  41  0000              cz equ [10].6
  42  0000              sc equ [10].7
  43  0000              intc equ [17]
  44  0000              
  45  0000              extern ra:byte
  46  0000              extern rb:byte
  47  0000              extern rc:byte
  48  0000              extern rd:byte
  49  0000              extern re:byte
  50  0000              extern rf:byte
  51  0000              extern rg:byte
  52  0000              extern rh:byte
  53  0000              extern _Crom2Prom:near
  54  0000              extern _Crom2PromNext:near
  55  0000              
  56  0000              RAMBANK 0 @BITDATASEC, @BITDATASEC1
  57  0000              @HCCINIT	.section 'data'
  58  0000              @HCCINIT0	.section 'data'
  59  0000              @BITDATASEC	 .section 'data'
文件：ncr_system.ASM 编译器版本 HGASM 0202 页次2

  60  0000              @BITDATASEC1	 .section 'data'
  61  0000              
  62  0000              #pragma debug scope 1 1
  63  0000              	extern __DELAY3:near
  64  0000              	extern __DELAYX3:near
  65  0000              	extern __DELAYX6:near
  66  0000              	extern __DELAYY5:near
  67  0000              	extern __DELAYY3:near
  68  0000              	extern _builtin_holtek_delay_2:byte
  69  0000              public _delay
  70  0000              #pragma debug scope 2 1

  11  0000              #line 11 "G:\workspace\client\利仁电气\software\NCR\ncr\ncr_system.c"
  11  0000              _delay .section 'code'
  11  0000              _delay proc
  11  0000              public _delay_2
  11  0000  000A[           local _delay_2 db 10 dup(?)	; 4,6
            00
            ]
  11  000A              #pragma debug variable 14 2 _delay_2+0 "value"
  11  000A              #pragma debug variable 11 2 _delay_2+4 "i"
  14  000A              #line 14 "G:\workspace\client\利仁电气\software\NCR\ncr\ncr_system.c"
  14  0000  0F01        	mov a,1
  14  0001  0300     R  	add a,_delay_2[0]
  14  0002  0080     R  	mov _delay_2[6],a
  14  0003  0F00        	mov a,0
  14  0004  1300     R  	adc a,_delay_2[1]
  14  0005  0080     R  	mov _delay_2[7],a
  14  0006  0F00        	mov a,0
  14  0007  1300     R  	adc a,_delay_2[2]
  14  0008  0080     R  	mov _delay_2[8],a
  14  0009  0F00        	mov a,0
  14  000A  1300     R  	adc a,_delay_2[3]
  14  000B  0080     R  	mov _delay_2[9],a
  13  000C              #line 13 "G:\workspace\client\利仁电气\software\NCR\ncr\ncr_system.c"
  13  000C  1F00     E  	clr rb
  13  000D  1F00     E  	clr rc
  16  000E              #line 16 "G:\workspace\client\利仁电气\software\NCR\ncr\ncr_system.c"
  16  000E  1F00     R  	clr _delay_2[4]
  16  000F  1F00     R  	clr _delay_2[5]
  16  0010  2800     R  	jmp _L2
  16  0011              _L5:
  17  0011              #line 17 "G:\workspace\client\利仁电气\software\NCR\ncr\ncr_system.c"
  17  0011  0FFF        	mov a,255
  17  0012  0380     E  	addm a,rb
  17  0013  0FFF        	mov a,255
  17  0014  1380     E  	adcm a,rc
  17  0015  0700     E  	mov a,rb
  17  0016  0600     E  	and a,rc
  17  0017  0B01        	add a,1
  17  0018  3C0A        	sz c
  17  0019  2800     R  	jmp _L7
  18  001A              #line 18 "G:\workspace\client\利仁电气\software\NCR\ncr\ncr_system.c"
  18  001A              ;# 18 "G:\workspace\client\利仁电气\software\NCR\ncr\ncr_system.c" 1
  18  001A  0000        	nop
  19  001B              #line 19 "G:\workspace\client\利仁电气\software\NCR\ncr\ncr_system.c"
  19  001B              ;# 19 "G:\workspace\client\利仁电气\software\NCR\ncr\ncr_system.c" 1
  19  001B  0000        	nop
  20  001C              #line 20 "G:\workspace\client\利仁电气\software\NCR\ncr\ncr_system.c"
  20  001C              ;# 20 "G:\workspace\client\利仁电气\software\NCR\ncr\ncr_system.c" 1
文件：ncr_system.c 编译器版本 HGASM 0202 页次3

  20  001C  0000        	nop
  21  001D              #line 21 "G:\workspace\client\利仁电气\software\NCR\ncr\ncr_system.c"
  21  001D              ;# 21 "G:\workspace\client\利仁电气\software\NCR\ncr\ncr_system.c" 1
  21  001D  0000        	nop
  22  001E              #line 22 "G:\workspace\client\利仁电气\software\NCR\ncr\ncr_system.c"
  22  001E              ;# 22 "G:\workspace\client\利仁电气\software\NCR\ncr\ncr_system.c" 1
  22  001E  0000        	nop
  23  001F              #line 23 "G:\workspace\client\利仁电气\software\NCR\ncr\ncr_system.c"
  23  001F              ;# 23 "G:\workspace\client\利仁电气\software\NCR\ncr\ncr_system.c" 1
  23  001F  0000        	nop
  24  0020              #line 24 "G:\workspace\client\利仁电气\software\NCR\ncr\ncr_system.c"
  24  0020              ;# 24 "G:\workspace\client\利仁电气\software\NCR\ncr\ncr_system.c" 1
  24  0020  0000        	nop
  25  0021              #line 25 "G:\workspace\client\利仁电气\software\NCR\ncr\ncr_system.c"
  25  0021              ;# 25 "G:\workspace\client\利仁电气\software\NCR\ncr\ncr_system.c" 1
  25  0021  0000        	nop
  26  0022              #line 26 "G:\workspace\client\利仁电气\software\NCR\ncr\ncr_system.c"
  26  0022              ;# 26 "G:\workspace\client\利仁电气\software\NCR\ncr\ncr_system.c" 1
  26  0022  0000        	nop
  27  0023              #line 27 "G:\workspace\client\利仁电气\software\NCR\ncr\ncr_system.c"
  27  0023              ;# 27 "G:\workspace\client\利仁电气\software\NCR\ncr\ncr_system.c" 1
  27  0023  0001        	clr wdt
  27  0024  2800     R  	jmp _L5
  27  0025              _L7:
  16  0025              #line 16 "G:\workspace\client\利仁电气\software\NCR\ncr\ncr_system.c"
  16  0025  1480     R  	inc _delay_2[4]
  16  0026  3D0A        	sz z
  16  0027  1480     R  	inc _delay_2[5]
  29  0028              #line 29 "G:\workspace\client\利仁电气\software\NCR\ncr\ncr_system.c"
  29  0028  0F64        	mov a,100
  29  0029  0080     E  	mov rb,a
  29  002A  1F00     E  	clr rc
  29  002B              _L2:
  16  002B              #line 16 "G:\workspace\client\利仁电气\software\NCR\ncr\ncr_system.c"
  16  002B  0700     R  	mov a,_delay_2[4]
  16  002C  0080     E  	mov rd,a
  16  002D  0700     R  	mov a,_delay_2[5]
  16  002E  0080     E  	mov re,a
  16  002F  1F05        	clr acc
  16  0030  3C00     E  	sz re.7
  16  0031  1F85        	set acc
  16  0032  0080     E  	mov rf,a
  16  0033  0080     E  	mov rg,a
  16  0034  0700     E  	mov a,rd
  16  0035  0200     R  	sub a,_delay_2[6]
  16  0036  0700     E  	mov a,re
  16  0037  1200     R  	sbc a,_delay_2[7]
  16  0038  0700     E  	mov a,rf
  16  0039  1200     R  	sbc a,_delay_2[8]
  16  003A  0700     E  	mov a,rg
  16  003B  1200     R  	sbc a,_delay_2[9]
  16  003C  380A        	snz c
  16  003D  2800     R  	jmp _L5
  16  003E  0003        	ret
  16  003F              _delay endp
  16  003F              #line 16 "G:\workspace\client\利仁电气\software\NCR\ncr\ncr_system.c"
  16  003F              #pragma debug scope 1 1
  16  003F              ___pa equ [20]
  16  003F              ___pc equ [40]
  16  003F              public _powerOnLEDBlink
文件：ncr_system.c 编译器版本 HGASM 0202 页次4

  16  003F              #pragma debug scope 3 1
  41  003F              #line 41 "G:\workspace\client\利仁电气\software\NCR\ncr\ncr_system.c"
  41  0000              _powerOnLEDBlink .section 'code'
  41  0000              _powerOnLEDBlink proc
  43  0000              #line 43 "G:\workspace\client\利仁电气\software\NCR\ncr\ncr_system.c"
  43  0000  1F00     E  	clr rb
  42  0001              #line 42 "G:\workspace\client\利仁电气\software\NCR\ncr\ncr_system.c"
  42  0001  0F03        	mov a,3
  42  0002  0080     E  	mov ra,a
  42  0003              _L13:
  46  0003              #line 46 "G:\workspace\client\利仁电气\software\NCR\ncr\ncr_system.c"
  46  0003  3E94        	sz [20].5
  46  0004  2800     R  	jmp _L9
  46  0005  3E14        	sz [20].4
  46  0006  2800     R  	jmp _L9
  47  0007              #line 47 "G:\workspace\client\利仁电气\software\NCR\ncr\ncr_system.c"
  47  0007  3428        	clr [40].0
  48  0008              #line 48 "G:\workspace\client\利仁电气\software\NCR\ncr\ncr_system.c"
  48  0008  34A8        	clr [40].1
  50  0009              #line 50 "G:\workspace\client\利仁电气\software\NCR\ncr\ncr_system.c"
  50  0009  0F01        	mov a,1
  50  000A  0080     E  	mov rb,a
  50  000B  2800     R  	jmp _L10
  50  000C              _L9:
  53  000C              #line 53 "G:\workspace\client\利仁电气\software\NCR\ncr\ncr_system.c"
  53  000C  1700     E  	sdza rb
  53  000D  2800     R  	jmp _L11
  55  000E              #line 55 "G:\workspace\client\利仁电气\software\NCR\ncr\ncr_system.c"
  55  000E  1580     E  	dec ra
  55  000F              _L11:
  57  000F              #line 57 "G:\workspace\client\利仁电气\software\NCR\ncr\ncr_system.c"
  57  000F  3028        	set [40].0
  58  0010              #line 58 "G:\workspace\client\利仁电气\software\NCR\ncr\ncr_system.c"
  58  0010  30A8        	set [40].1
  58  0011  1F00     E  	clr rb
  58  0012              _L10:
  60  0012              #line 60 "G:\workspace\client\利仁电气\software\NCR\ncr\ncr_system.c"
  60  0012              ;# 60 "G:\workspace\client\利仁电气\software\NCR\ncr\ncr_system.c" 1
  60  0012  0001        	clr wdt
  45  0013              #line 45 "G:\workspace\client\利仁电气\software\NCR\ncr\ncr_system.c"
  45  0013  1080     E  	sz ra
  45  0014  2800     R  	jmp _L13
  62  0015              #line 62 "G:\workspace\client\利仁电气\software\NCR\ncr\ncr_system.c"
  62  0015  3028        	set [40].0
  63  0016              #line 63 "G:\workspace\client\利仁电气\software\NCR\ncr\ncr_system.c"
  63  0016  30A8        	set [40].1
  64  0017              #line 64 "G:\workspace\client\利仁电气\software\NCR\ncr\ncr_system.c"
  64  0017  0FDC        	mov a,-36
  64  0018  0080     R  	mov _delay_2[0],a
  64  0019  0F05        	mov a,5
  64  001A  0080     R  	mov _delay_2[1],a
  64  001B  1F00     R  	clr _delay_2[2]
  64  001C  1F00     R  	clr _delay_2[3]
  64  001D  2000     R  	call _delay
  64  001E  0003        	ret
  64  001F              _powerOnLEDBlink endp
  64  001F              #line 64 "G:\workspace\client\利仁电气\software\NCR\ncr\ncr_system.c"
  64  001F              #pragma debug scope 1 1
  64  001F              public _checkPowerOnLEDBlink
  64  001F              #pragma debug scope 4 1
文件：ncr_system.c 编译器版本 HGASM 0202 页次5

  67  001F              #line 67 "G:\workspace\client\利仁电气\software\NCR\ncr\ncr_system.c"
  67  0000              _checkPowerOnLEDBlink .section 'code'
  67  0000              _checkPowerOnLEDBlink proc
  69  0000              #line 69 "G:\workspace\client\利仁电气\software\NCR\ncr\ncr_system.c"
  69  0000  1F00     E  	clr ra
  69  0001              _L18:
  72  0001              #line 72 "G:\workspace\client\利仁电气\software\NCR\ncr\ncr_system.c"
  72  0001  3E94        	sz [20].5
  72  0002  2800     R  	jmp _L15
  72  0003  3E14        	sz [20].4
  72  0004  2800     R  	jmp _L15
  73  0005              #line 73 "G:\workspace\client\利仁电气\software\NCR\ncr\ncr_system.c"
  73  0005  3428        	clr [40].0
  74  0006              #line 74 "G:\workspace\client\利仁电气\software\NCR\ncr\ncr_system.c"
  74  0006  34A8        	clr [40].1
  76  0007              #line 76 "G:\workspace\client\利仁电气\software\NCR\ncr\ncr_system.c"
  76  0007  0F01        	mov a,1
  76  0008  0080     E  	mov ra,a
  76  0009  0F01        	mov a,1
  76  000A  0080     E  	mov rb,a
  76  000B  2800     R  	jmp _L16
  76  000C              _L15:
  81  000C              #line 81 "G:\workspace\client\利仁电气\software\NCR\ncr\ncr_system.c"
  81  000C  0700     E  	mov a,ra
  81  000D  0C01        	xor a,1
  81  000E  0080     E  	mov rb,a
  83  000F              #line 83 "G:\workspace\client\利仁电气\software\NCR\ncr\ncr_system.c"
  83  000F  3028        	set [40].0
  84  0010              #line 84 "G:\workspace\client\利仁电气\software\NCR\ncr\ncr_system.c"
  84  0010  30A8        	set [40].1
  84  0011  1F00     E  	clr ra
  84  0012              _L16:
  86  0012              #line 86 "G:\workspace\client\利仁电气\software\NCR\ncr\ncr_system.c"
  86  0012              ;# 86 "G:\workspace\client\利仁电气\software\NCR\ncr\ncr_system.c" 1
  86  0012  0001        	clr wdt
  71  0013              #line 71 "G:\workspace\client\利仁电气\software\NCR\ncr\ncr_system.c"
  71  0013  1080     E  	sz rb
  71  0014  2800     R  	jmp _L18
  88  0015              #line 88 "G:\workspace\client\利仁电气\software\NCR\ncr\ncr_system.c"
  88  0015  3028        	set [40].0
  89  0016              #line 89 "G:\workspace\client\利仁电气\software\NCR\ncr\ncr_system.c"
  89  0016  30A8        	set [40].1
  90  0017              #line 90 "G:\workspace\client\利仁电气\software\NCR\ncr\ncr_system.c"
  90  0017  0FF4        	mov a,-12
  90  0018  0080     R  	mov _delay_2[0],a
  90  0019  0F01        	mov a,1
  90  001A  0080     R  	mov _delay_2[1],a
  90  001B  1F00     R  	clr _delay_2[2]
  90  001C  1F00     R  	clr _delay_2[3]
  90  001D  2000     R  	call _delay
  90  001E  0003        	ret
  90  001F              _checkPowerOnLEDBlink endp
  90  001F              #line 90 "G:\workspace\client\利仁电气\software\NCR\ncr\ncr_system.c"
  90  001F              #pragma debug scope 1 1
  90  001F              ___pb equ [32]
  90  001F              public _pair
  90  001F              #pragma debug scope 5 1
 106  001F              #line 106 "G:\workspace\client\利仁电气\software\NCR\ncr\ncr_system.c"
 106  0000              _pair .section 'code'
 106  0000              _pair proc
文件：ncr_system.c 编译器版本 HGASM 0202 页次6

 106  0000  0006[           local _pair_2 db 6 dup(?)	; 0,6
            00
            ]
 106  0000  0080     R  	mov _pair_2[0],a
 106  0001              #pragma debug variable 8 5 _pair_2+0 "ch"
 106  0001              #pragma debug variable 12 5 _pair_2+2 "cnt"
 106  0001              #pragma debug variable 12 5 _pair_2+4 "timeout"
 106  0001              #pragma debug variable 8 5 _pair_2+1 "flag"
 109  0001              #line 109 "G:\workspace\client\利仁电气\software\NCR\ncr\ncr_system.c"
 109  0001  1F00     R  	clr _pair_2[1]
 108  0002              #line 108 "G:\workspace\client\利仁电气\software\NCR\ncr\ncr_system.c"
 108  0002  1F00     R  	clr _pair_2[4]
 108  0003  1F00     R  	clr _pair_2[5]
 107  0004              #line 107 "G:\workspace\client\利仁电气\software\NCR\ncr\ncr_system.c"
 107  0004  1F00     R  	clr _pair_2[2]
 107  0005  1F00     R  	clr _pair_2[3]
 107  0006              _L38:
 112  0006              #line 112 "G:\workspace\client\利仁电气\software\NCR\ncr\ncr_system.c"
 112  0006  0700     R  	mov a,_pair_2[0]
 112  0007  0A00        	sub a,0
 112  0008  3D0A        	sz z
 112  0009  2800     R  	jmp _L21
 112  000A  0A01        	sub a,(1)-(0)
 112  000B  3D0A        	sz z
 112  000C  2800     R  	jmp _L22
 112  000D  0700     R  	mov a,_pair_2[0]
 112  000E  0A02        	sub a,2
 112  000F  3D0A        	sz z
 112  0010  2800     R  	jmp _L23
 112  0011  0A01        	sub a,(3)-(2)
 112  0012  3D0A        	sz z
 112  0013  2800     R  	jmp _L24
 112  0014  0700     R  	mov a,_pair_2[0]
 112  0015  0A04        	sub a,4
 112  0016  3D0A        	sz z
 112  0017  2800     R  	jmp _L25
 112  0018  0700     R  	mov a,_pair_2[0]
 112  0019  0A05        	sub a,5
 112  001A  390A        	snz z
 112  001B  2800     R  	jmp _L20
 112  001C  2800     R  	jmp _L72
 112  001D              _L21:
 114  001D              #line 114 "G:\workspace\client\利仁电气\software\NCR\ncr\ncr_system.c"
 114  001D  3E94        	sz [20].5
 114  001E  2800     R  	jmp _L27
 114  001F  2800     R  	jmp _L63
 114  0020              _L22:
 133  0020              #line 133 "G:\workspace\client\利仁电气\software\NCR\ncr\ncr_system.c"
 133  0020  3A14        	snz [20].4
 133  0021  2800     R  	jmp _L63
 133  0022              _L27:
 122  0022              #line 122 "G:\workspace\client\利仁电气\software\NCR\ncr\ncr_system.c"
 122  0022  1700     R  	sdza _pair_2[1]
 122  0023  2800     R  	jmp _L52
 124  0024              #line 124 "G:\workspace\client\利仁电气\software\NCR\ncr\ncr_system.c"
 124  0024  0F38        	mov a,56
 124  0025  0300     R  	add a,_pair_2[2]
 124  0026  0080     E  	mov _abs_2[0],a
 124  0027  0FFF        	mov a,255
 124  0028  1300     R  	adc a,_pair_2[3]
文件：ncr_system.c 编译器版本 HGASM 0202 页次7

 124  0029  0080     E  	mov _abs_2[1],a
 124  002A  2000     E  	call _abs
 124  002B  0F0E        	mov a,14
 124  002C  0200     E  	sub a,ra
 124  002D  0F00        	mov a,0
 124  002E  1200     E  	sbc a,rb
 124  002F  3B8A        	snz sc
 124  0030  2800     R  	jmp _L28
 123  0031              #line 123 "G:\workspace\client\利仁电气\software\NCR\ncr\ncr_system.c"
 123  0031  1F00     R  	clr _pair_2[1]
 123  0032  2800     R  	jmp _L59
 123  0033              _L23:
 152  0033              #line 152 "G:\workspace\client\利仁电气\software\NCR\ncr\ncr_system.c"
 152  0033  3D94        	sz [20].3
 152  0034  2800     R  	jmp _L27
 152  0035  2800     R  	jmp _L63
 152  0036              _L24:
 171  0036              #line 171 "G:\workspace\client\利仁电气\software\NCR\ncr\ncr_system.c"
 171  0036  3C94        	sz [20].1
 171  0037  2800     R  	jmp _L27
 171  0038  2800     R  	jmp _L63
 171  0039              _L25:
 190  0039              #line 190 "G:\workspace\client\利仁电气\software\NCR\ncr\ncr_system.c"
 190  0039  3D14        	sz [20].2
 190  003A  2800     R  	jmp _L27
 190  003B  2800     R  	jmp _L63
 190  003C              _L72:
 209  003C              #line 209 "G:\workspace\client\利仁电气\software\NCR\ncr\ncr_system.c"
 209  003C  3C14        	sz [20].0
 209  003D  2800     R  	jmp _L27
 209  003E              _L63:
 210  003E              #line 210 "G:\workspace\client\利仁电气\software\NCR\ncr\ncr_system.c"
 210  003E  1E00     R  	snz _pair_2[1]
 210  003F  2800     R  	jmp _L51
 214  0040              #line 214 "G:\workspace\client\利仁电气\software\NCR\ncr\ncr_system.c"
 214  0040  1480     R  	inc _pair_2[2]
 214  0041  3D0A        	sz z
 214  0042  1480     R  	inc _pair_2[3]
 214  0043  0F01        	mov a,1
 214  0044  0080     R  	mov _pair_2[1],a
 214  0045  2800     R  	jmp _L20
 214  0046              _L51:
 116  0046              #line 116 "G:\workspace\client\利仁电气\software\NCR\ncr\ncr_system.c"
 116  0046  0F01        	mov a,1
 116  0047  0080     R  	mov _pair_2[1],a
 116  0048              _L59:
 117  0048              #line 117 "G:\workspace\client\利仁电气\software\NCR\ncr\ncr_system.c"
 117  0048  1F00     R  	clr _pair_2[2]
 117  0049  1F00     R  	clr _pair_2[3]
 117  004A  2800     R  	jmp _L20
 117  004B              _L52:
 117  004B  1F00     R  	clr _pair_2[1]
 117  004C              _L20:
 229  004C              #line 229 "G:\workspace\client\利仁电气\software\NCR\ncr\ncr_system.c"
 229  004C  3D20        	sz [32].2
 229  004D  2800     R  	jmp _L35
 230  004E              #line 230 "G:\workspace\client\利仁电气\software\NCR\ncr\ncr_system.c"
 230  004E  1F00     R  	clr _pair_2[4]
 230  004F  1F00     R  	clr _pair_2[5]
 230  0050              _L35:
文件：ncr_system.c 编译器版本 HGASM 0202 页次8

 230  0050              #pragma debug scope 6 5
 230  0050              ;begin block, line: 230.-1
 230  0050              #pragma debug scope 7 6
 230  0050              ;begin block, line: 230.-1
  94  0050              #line 94 "G:\workspace\client\利仁电气\software\NCR\ncr\ncr_system.c"
  94  0050  3E94        	sz [20].5
  94  0051  2800     R  	jmp _L36
  94  0052  3E14        	sz [20].4
  94  0053  2800     R  	jmp _L36
  95  0054              #line 95 "G:\workspace\client\利仁电气\software\NCR\ncr\ncr_system.c"
  95  0054  3D94        	sz [20].3
  95  0055  2800     R  	jmp _L36
  96  0056              #line 96 "G:\workspace\client\利仁电气\software\NCR\ncr\ncr_system.c"
  96  0056  3C94        	sz [20].1
  96  0057  2800     R  	jmp _L36
  97  0058              #line 97 "G:\workspace\client\利仁电气\software\NCR\ncr\ncr_system.c"
  97  0058  3D14        	sz [20].2
  97  0059  2800     R  	jmp _L36
  98  005A              #line 98 "G:\workspace\client\利仁电气\software\NCR\ncr\ncr_system.c"
  98  005A  3C14        	sz [20].0
  98  005B  2800     R  	jmp _L36
  98  005C              #pragma debug scope 6 5
  98  005C              #pragma debug scope 5 1
 236  005C              #line 236 "G:\workspace\client\利仁电气\software\NCR\ncr\ncr_system.c"
 236  005C  0FC4        	mov a,-60
 236  005D  0080     R  	mov _delay_2[0],a
 236  005E  0F09        	mov a,9
 236  005F  0080     R  	mov _delay_2[1],a
 236  0060  1F00     R  	clr _delay_2[2]
 236  0061  1F00     R  	clr _delay_2[3]
 236  0062  2000     R  	call _delay
 236  0063  2800     R  	jmp _L60
 236  0064              _L28:
 125  0064              #line 125 "G:\workspace\client\利仁电气\software\NCR\ncr\ncr_system.c"
 125  0064  0F01        	mov a,1
 125  0065  0080     E  	mov ra,a
 125  0066  2800     R  	jmp _L55
 125  0067              _L60:
 237  0067              #line 237 "G:\workspace\client\利仁电气\software\NCR\ncr\ncr_system.c"
 237  0067  1F00     E  	clr ra
 237  0068  2800     R  	jmp _L55
 237  0069              _L36:
 240  0069              #line 240 "G:\workspace\client\利仁电气\software\NCR\ncr\ncr_system.c"
 240  0069  1480     R  	inc _pair_2[4]
 240  006A  3D0A        	sz z
 240  006B  1480     R  	inc _pair_2[5]
 241  006C              #line 241 "G:\workspace\client\利仁电气\software\NCR\ncr\ncr_system.c"
 241  006C  0FB7        	mov a,183
 241  006D  0200     R  	sub a,_pair_2[4]
 241  006E  0F0B        	mov a,11
 241  006F  1200     R  	sbc a,_pair_2[5]
 241  0070  380A        	snz c
 241  0071  2800     R  	jmp _L60
 244  0072              #line 244 "G:\workspace\client\利仁电气\software\NCR\ncr\ncr_system.c"
 244  0072  0F0A        	mov a,10
 244  0073  0080     R  	mov _delay_2[0],a
 244  0074  1F00     R  	clr _delay_2[1]
 244  0075  1F00     R  	clr _delay_2[2]
 244  0076  1F00     R  	clr _delay_2[3]
 244  0077  2000     R  	call _delay
文件：ncr_system.c 编译器版本 HGASM 0202 页次9

 245  0078              #line 245 "G:\workspace\client\利仁电气\software\NCR\ncr\ncr_system.c"
 245  0078  2800     R  	jmp _L38
 245  0079              _L55:
 247  0079              #line 247 "G:\workspace\client\利仁电气\software\NCR\ncr\ncr_system.c"
 247  0079  0700     E  	mov a,ra
 247  007A  0003        	ret
 247  007B              _pair endp
 247  007B              #line 247 "G:\workspace\client\利仁电气\software\NCR\ncr\ncr_system.c"
 247  007B              #pragma debug scope 1 1
 247  007B              ___ptmc0 equ [68]
 247  007B              ___ptmc1 equ [69]
 247  007B              ___ptmal equ [72]
 247  007B              ___ptmah equ [73]
 247  007B              ___mfi0 equ [30]
 247  007B              ___intc0 equ [17]
 247  007B              public _ptmtToneConfig
 247  007B              #pragma debug scope 8 1
 400  007B              #line 400 "G:\workspace\client\利仁电气\software\NCR\ncr\ncr_system.c"
 400  0000              _ptmtToneConfig .section 'code'
 400  0000              _ptmtToneConfig proc
 401  0000              #line 401 "G:\workspace\client\利仁电气\software\NCR\ncr\ncr_system.c"
 401  0000  0F20        	mov a,32
 401  0001  00C4        	mov [68],a
 402  0002              #line 402 "G:\workspace\client\利仁电气\software\NCR\ncr\ncr_system.c"
 402  0002  0FC1        	mov a,193
 402  0003  00C5        	mov [69],a
 403  0004              #line 403 "G:\workspace\client\利仁电气\software\NCR\ncr\ncr_system.c"
 403  0004  0F2F        	mov a,47
 403  0005  00C8        	mov [72],a
 404  0006              #line 404 "G:\workspace\client\利仁电气\software\NCR\ncr\ncr_system.c"
 404  0006  0F01        	mov a,1
 404  0007  00C9        	mov [73],a
 405  0008              #line 405 "G:\workspace\client\利仁电气\software\NCR\ncr\ncr_system.c"
 405  0008  309E        	set [30].1
 406  0009              #line 406 "G:\workspace\client\利仁电气\software\NCR\ncr\ncr_system.c"
 406  0009  3191        	set [17].3
 407  000A              #line 407 "G:\workspace\client\利仁电气\software\NCR\ncr\ncr_system.c"
 407  000A  35C4        	clr [68].3
 408  000B              #line 408 "G:\workspace\client\利仁电气\software\NCR\ncr\ncr_system.c"
 408  000B  3011        	set [17].0
 408  000C  0003        	ret
 408  000D              _ptmtToneConfig endp
 408  000D              #line 408 "G:\workspace\client\利仁电气\software\NCR\ncr\ncr_system.c"
 408  000D              #pragma debug scope 1 1
 408  000D              public _soundOff
 408  000D              #pragma debug scope 9 1
 412  000D              #line 412 "G:\workspace\client\利仁电气\software\NCR\ncr\ncr_system.c"
 412  0000              _soundOff .section 'code'
 412  0000              _soundOff proc
 413  0000              #line 413 "G:\workspace\client\利仁电气\software\NCR\ncr\ncr_system.c"
 413  0000  1F00     R  	clr _waringEnable[0]
 414  0001              #line 414 "G:\workspace\client\利仁电气\software\NCR\ncr\ncr_system.c"
 414  0001  35C4        	clr [68].3
 415  0002              #line 415 "G:\workspace\client\利仁电气\software\NCR\ncr\ncr_system.c"
 415  0002  35A8        	clr [40].3
 415  0003  0003        	ret
 415  0004              _soundOff endp
 415  0004              #line 415 "G:\workspace\client\利仁电气\software\NCR\ncr\ncr_system.c"
 415  0004              #pragma debug scope 1 1
 415  0004              public _toneMode
文件：ncr_system.c 编译器版本 HGASM 0202 页次10

 415  0004              #pragma debug scope 10 1
 418  0004              #line 418 "G:\workspace\client\利仁电气\software\NCR\ncr\ncr_system.c"
 418  0000              _toneMode .section 'code'
 418  0000              _toneMode proc
 418  0000  00              local _toneMode_2 db 1 dup(?)	; 0,1
 418  0000  0080     E  	mov ra,a
 418  0001  0080     R  	mov _toneMode_2[0],a
 418  0002              #pragma debug variable 8 10 _toneMode_2+0 "nMode"
 419  0002              #line 419 "G:\workspace\client\利仁电气\software\NCR\ncr\ncr_system.c"
 419  0002  1080     E  	sz ra
 419  0003  2800     R  	jmp _L76
 420  0004              #line 420 "G:\workspace\client\利仁电气\software\NCR\ncr\ncr_system.c"
 420  0004  2000     R  	call _soundOff
 420  0005  2800     R  	jmp _L75
 420  0006              _L76:
 422  0006              #line 422 "G:\workspace\client\利仁电气\software\NCR\ncr\ncr_system.c"
 422  0006  0F01        	mov a,1
 422  0007  0080     R  	mov _waringEnable[0],a
 423  0008              #line 423 "G:\workspace\client\利仁电气\software\NCR\ncr\ncr_system.c"
 423  0008  0700     R  	mov a,_toneMode_2[0]
 423  0009  0A01        	sub a,1
 423  000A  3D0A        	sz z
 423  000B  2800     R  	jmp _L79
 423  000C  0A01        	sub a,(2)-(1)
 423  000D  3D0A        	sz z
 423  000E  2800     R  	jmp _L80
 423  000F  0700     R  	mov a,_toneMode_2[0]
 423  0010  0A03        	sub a,3
 423  0011  3D0A        	sz z
 423  0012  2800     R  	jmp _L81
 423  0013  0A01        	sub a,(4)-(3)
 423  0014  3D0A        	sz z
 423  0015  2800     R  	jmp _L82
 423  0016  0700     R  	mov a,_toneMode_2[0]
 423  0017  0A05        	sub a,5
 423  0018  3D0A        	sz z
 423  0019  2800     R  	jmp _L83
 423  001A  0A01        	sub a,(6)-(5)
 423  001B  3D0A        	sz z
 423  001C  2800     R  	jmp _L84
 423  001D  0700     R  	mov a,_toneMode_2[0]
 423  001E  0A07        	sub a,7
 423  001F  3D0A        	sz z
 423  0020  2800     R  	jmp _L85
 423  0021  0A01        	sub a,(8)-(7)
 423  0022  3D0A        	sz z
 423  0023  2800     R  	jmp _L86
 423  0024  0700     R  	mov a,_toneMode_2[0]
 423  0025  0A09        	sub a,9
 423  0026  3D0A        	sz z
 423  0027  2800     R  	jmp _L87
 423  0028  0A01        	sub a,(10)-(9)
 423  0029  3D0A        	sz z
 423  002A  2800     R  	jmp _L88
 423  002B  0700     R  	mov a,_toneMode_2[0]
 423  002C  0A0B        	sub a,11
 423  002D  3D0A        	sz z
 423  002E  2800     R  	jmp _L89
 423  002F  0700     R  	mov a,_toneMode_2[0]
 423  0030  0A0C        	sub a,12
文件：ncr_system.c 编译器版本 HGASM 0202 页次11

 423  0031  390A        	snz z
 423  0032  2800     R  	jmp _L78
 469  0033              #line 469 "G:\workspace\client\利仁电气\software\NCR\ncr\ncr_system.c"
 469  0033  0F3E        	mov a,62
 469  0034  00C8        	mov [72],a
 469  0035  2800     R  	jmp _L92
 469  0036              _L79:
 425  0036              #line 425 "G:\workspace\client\利仁电气\software\NCR\ncr\ncr_system.c"
 425  0036  0FC7        	mov a,199
 425  0037  00C8        	mov [72],a
 425  0038  2800     R  	jmp _L91
 425  0039              _L80:
 429  0039              #line 429 "G:\workspace\client\利仁电气\software\NCR\ncr\ncr_system.c"
 429  0039  0F65        	mov a,101
 429  003A  00C8        	mov [72],a
 429  003B              _L91:
 430  003B              #line 430 "G:\workspace\client\利仁电气\software\NCR\ncr\ncr_system.c"
 430  003B  0F01        	mov a,1
 430  003C  00C9        	mov [73],a
 431  003D              #line 431 "G:\workspace\client\利仁电气\software\NCR\ncr\ncr_system.c"
 431  003D  2800     R  	jmp _L78
 431  003E              _L81:
 433  003E              #line 433 "G:\workspace\client\利仁电气\software\NCR\ncr\ncr_system.c"
 433  003E  0F32        	mov a,50
 433  003F  00C8        	mov [72],a
 433  0040  2800     R  	jmp _L93
 433  0041              _L82:
 437  0041              #line 437 "G:\workspace\client\利仁电气\software\NCR\ncr\ncr_system.c"
 437  0041  0F07        	mov a,7
 437  0042  00C8        	mov [72],a
 437  0043  2800     R  	jmp _L91
 437  0044              _L83:
 441  0044              #line 441 "G:\workspace\client\利仁电气\software\NCR\ncr\ncr_system.c"
 441  0044  0F98        	mov a,152
 441  0045  00C8        	mov [72],a
 441  0046  2800     R  	jmp _L92
 441  0047              _L84:
 445  0047              #line 445 "G:\workspace\client\利仁电气\software\NCR\ncr\ncr_system.c"
 445  0047  0F7C        	mov a,124
 445  0048  00C8        	mov [72],a
 445  0049  2800     R  	jmp _L92
 445  004A              _L85:
 449  004A              #line 449 "G:\workspace\client\利仁电气\software\NCR\ncr\ncr_system.c"
 449  004A  0FF6        	mov a,246
 449  004B  00C8        	mov [72],a
 449  004C  2800     R  	jmp _L94
 449  004D              _L86:
 453  004D              #line 453 "G:\workspace\client\利仁电气\software\NCR\ncr\ncr_system.c"
 453  004D  0FD4        	mov a,212
 453  004E  00C8        	mov [72],a
 453  004F              _L93:
 454  004F              #line 454 "G:\workspace\client\利仁电气\software\NCR\ncr\ncr_system.c"
 454  004F  1F49        	clr [73]
 455  0050              #line 455 "G:\workspace\client\利仁电气\software\NCR\ncr\ncr_system.c"
 455  0050  2800     R  	jmp _L78
 455  0051              _L87:
 457  0051              #line 457 "G:\workspace\client\利仁电气\software\NCR\ncr\ncr_system.c"
 457  0051  0F7D        	mov a,125
 457  0052  00C8        	mov [72],a
 457  0053              _L94:
文件：ncr_system.c 编译器版本 HGASM 0202 页次12

 458  0053              #line 458 "G:\workspace\client\利仁电气\software\NCR\ncr\ncr_system.c"
 458  0053  0F02        	mov a,2
 458  0054  00C9        	mov [73],a
 459  0055              #line 459 "G:\workspace\client\利仁电气\software\NCR\ncr\ncr_system.c"
 459  0055  2800     R  	jmp _L78
 459  0056              _L88:
 461  0056              #line 461 "G:\workspace\client\利仁电气\software\NCR\ncr\ncr_system.c"
 461  0056  0F1C        	mov a,28
 461  0057  00C8        	mov [72],a
 461  0058  2800     R  	jmp _L92
 461  0059              _L89:
 465  0059              #line 465 "G:\workspace\client\利仁电气\software\NCR\ncr\ncr_system.c"
 465  0059  0FAA        	mov a,170
 465  005A  00C8        	mov [72],a
 465  005B              _L92:
 470  005B              #line 470 "G:\workspace\client\利仁电气\software\NCR\ncr\ncr_system.c"
 470  005B  0F05        	mov a,5
 470  005C  00C9        	mov [73],a
 470  005D              _L78:
 473  005D              #line 473 "G:\workspace\client\利仁电气\software\NCR\ncr\ncr_system.c"
 473  005D  31C4        	set [68].3
 473  005E              _L75:
 473  005E  0003        	ret
 473  005F              _toneMode endp
 473  005F              #line 473 "G:\workspace\client\利仁电气\software\NCR\ncr\ncr_system.c"
 473  005F              #pragma debug scope 1 1
 473  005F              ___pd equ [53]
 473  005F              public _keysPushWaring
 473  005F              #pragma debug scope 11 1
  33  005F              #line 33 "G:\workspace\client\利仁电气\software\NCR\ncr\ncr_system.c"
  33  0000              _keysPushWaring .section 'code'
  33  0000              _keysPushWaring proc
  34  0000              #line 34 "G:\workspace\client\利仁电气\software\NCR\ncr\ncr_system.c"
  34  0000  30B5        	set [53].1
  35  0001              #line 35 "G:\workspace\client\利仁电气\software\NCR\ncr\ncr_system.c"
  35  0001  0F03        	mov a,3
  35  0002  2000     R  	call _toneMode
  36  0003              #line 36 "G:\workspace\client\利仁电气\software\NCR\ncr\ncr_system.c"
  36  0003  0F32        	mov a,50
  36  0004  0080     R  	mov _delay_2[0],a
  36  0005  1F00     R  	clr _delay_2[1]
  36  0006  1F00     R  	clr _delay_2[2]
  36  0007  1F00     R  	clr _delay_2[3]
  36  0008  2000     R  	call _delay
  37  0009              #line 37 "G:\workspace\client\利仁电气\software\NCR\ncr\ncr_system.c"
  37  0009  34B5        	clr [53].1
  38  000A              #line 38 "G:\workspace\client\利仁电气\software\NCR\ncr\ncr_system.c"
  38  000A  0F00        	mov a,0
  38  000B  2000     R  	call _toneMode
  38  000C  0003        	ret
  38  000D              _keysPushWaring endp
  38  000D              #line 38 "G:\workspace\client\利仁电气\software\NCR\ncr\ncr_system.c"
  38  000D              #pragma debug scope 1 1
  38  000D              public _holdLow
  38  000D              #pragma debug scope 12 1
 338  000D              #line 338 "G:\workspace\client\利仁电气\software\NCR\ncr\ncr_system.c"
 338  0000              _holdLow .section 'code'
 338  0000              _holdLow proc
 338  0000  0003[           local _holdLow_2 db 3 dup(?)	; 0,3
            00
文件：ncr_system.c 编译器版本 HGASM 0202 页次13

            ]
 338  0003              #pragma debug variable 8 12 _holdLow_2+2 "keyFlag"
 344  0003              #line 344 "G:\workspace\client\利仁电气\software\NCR\ncr\ncr_system.c"
 344  0000  1920        	rra [32]
 344  0001  0E7F        	and a,07fh
 344  0002  0080     E  	mov ra,a
 344  0003  0F01        	mov a,1
 344  0004  0480     E  	xorm a,ra
 344  0005  0700     E  	mov a,ra
 344  0006  0E01        	and a,1
 344  0007  0080     R  	mov _holdLow_2[2],a
 344  0008  0FBA        	mov a,-70
 344  0009  0080     R  	mov _holdLow_2[0],a
 344  000A  0F0B        	mov a,11
 344  000B  0080     R  	mov _holdLow_2[1],a
 344  000C              _L104:
 346  000C              #line 346 "G:\workspace\client\利仁电气\software\NCR\ncr\ncr_system.c"
 346  000C  1F00     E  	clr ra
 346  000D  3E94        	sz [20].5
 346  000E  1480     E  	inc ra
 349  000F              #line 349 "G:\workspace\client\利仁电气\software\NCR\ncr\ncr_system.c"
 349  000F  3A14        	snz [20].4
 349  0010  2800     R  	jmp _L97
 350  0011              #line 350 "G:\workspace\client\利仁电气\software\NCR\ncr\ncr_system.c"
 350  0011  1480     E  	inc ra
 350  0012              _L97:
 352  0012              #line 352 "G:\workspace\client\利仁电气\software\NCR\ncr\ncr_system.c"
 352  0012  3994        	snz [20].3
 352  0013  2800     R  	jmp _L98
 353  0014              #line 353 "G:\workspace\client\利仁电气\software\NCR\ncr\ncr_system.c"
 353  0014  1480     E  	inc ra
 353  0015              _L98:
 355  0015              #line 355 "G:\workspace\client\利仁电气\software\NCR\ncr\ncr_system.c"
 355  0015  3894        	snz [20].1
 355  0016  2800     R  	jmp _L99
 356  0017              #line 356 "G:\workspace\client\利仁电气\software\NCR\ncr\ncr_system.c"
 356  0017  1480     E  	inc ra
 356  0018              _L99:
 358  0018              #line 358 "G:\workspace\client\利仁电气\software\NCR\ncr\ncr_system.c"
 358  0018  3914        	snz [20].2
 358  0019  2800     R  	jmp _L100
 359  001A              #line 359 "G:\workspace\client\利仁电气\software\NCR\ncr\ncr_system.c"
 359  001A  1480     E  	inc ra
 359  001B              _L100:
 361  001B              #line 361 "G:\workspace\client\利仁电气\software\NCR\ncr\ncr_system.c"
 361  001B  3814        	snz [20].0
 361  001C  2800     R  	jmp _L101
 362  001D              #line 362 "G:\workspace\client\利仁电气\software\NCR\ncr\ncr_system.c"
 362  001D  1480     E  	inc ra
 362  001E              _L101:
 365  001E              #line 365 "G:\workspace\client\利仁电气\software\NCR\ncr\ncr_system.c"
 365  001E  0F01        	mov a,1
 365  001F  0200     E  	sub a,ra
 365  0020  380A        	snz c
 365  0021  2800     R  	jmp _L102
 365  0022  0FFF        	mov a,255
 365  0023  0380     R  	addm a,_holdLow_2[0]
 365  0024  0FFF        	mov a,255
 365  0025  1380     R  	adcm a,_holdLow_2[1]
 370  0026              #line 370 "G:\workspace\client\利仁电气\software\NCR\ncr\ncr_system.c"
文件：ncr_system.c 编译器版本 HGASM 0202 页次14

 370  0026  0700     R  	mov a,_holdLow_2[0]
 370  0027  0500     R  	or a,_holdLow_2[1]
 370  0028  3D0A        	sz z
 370  0029  2800     R  	jmp _L102
 374  002A              #line 374 "G:\workspace\client\利仁电气\software\NCR\ncr\ncr_system.c"
 374  002A  3CA0        	sz [32].1
 374  002B  2800     R  	jmp _L119
 375  002C              #line 375 "G:\workspace\client\利仁电气\software\NCR\ncr\ncr_system.c"
 375  002C  2000     R  	call _keysPushWaring
 376  002D              #line 376 "G:\workspace\client\利仁电气\software\NCR\ncr\ncr_system.c"
 376  002D  1E00     R  	snz _holdLow_2[2]
 376  002E  2800     R  	jmp _L102
 376  002F  0F01        	mov a,1
 376  0030  0080     R  	mov _holdLow_2[2],a
 376  0031  2800     R  	jmp _L103
 376  0032              _L119:
 379  0032              #line 379 "G:\workspace\client\利仁电气\software\NCR\ncr\ncr_system.c"
 379  0032  1F00     R  	clr _holdLow_2[2]
 379  0033              _L103:
 382  0033              #line 382 "G:\workspace\client\利仁电气\software\NCR\ncr\ncr_system.c"
 382  0033  0F64        	mov a,100
 382  0034  0080     R  	mov _delay_2[0],a
 382  0035  1F00     R  	clr _delay_2[1]
 382  0036  1F00     R  	clr _delay_2[2]
 382  0037  1F00     R  	clr _delay_2[3]
 382  0038  2000     R  	call _delay
 383  0039              #line 383 "G:\workspace\client\利仁电气\software\NCR\ncr\ncr_system.c"
 383  0039  2800     R  	jmp _L104
 383  003A              _L102:
 386  003A              #line 386 "G:\workspace\client\利仁电气\software\NCR\ncr\ncr_system.c"
 386  003A  36A8        	clr [40].5
 387  003B              #line 387 "G:\workspace\client\利仁电气\software\NCR\ncr\ncr_system.c"
 387  003B  0FC8        	mov a,-56
 387  003C  0080     R  	mov _delay_2[0],a
 387  003D  1F00     R  	clr _delay_2[1]
 387  003E  1F00     R  	clr _delay_2[2]
 387  003F  1F00     R  	clr _delay_2[3]
 387  0040  2000     R  	call _delay
 388  0041              #line 388 "G:\workspace\client\利仁电气\software\NCR\ncr\ncr_system.c"
 388  0041  32A8        	set [40].5
 388  0042              _L106:
 390  0042              #line 390 "G:\workspace\client\利仁电气\software\NCR\ncr\ncr_system.c"
 390  0042  38A0        	snz [32].1
 390  0043  2800     R  	jmp _L106
 390  0044              _L108:
 391  0044              #line 391 "G:\workspace\client\利仁电气\software\NCR\ncr\ncr_system.c"
 391  0044  3A94        	snz [20].5
 391  0045  2800     R  	jmp _L108
 391  0046              _L110:
 392  0046              #line 392 "G:\workspace\client\利仁电气\software\NCR\ncr\ncr_system.c"
 392  0046  3A14        	snz [20].4
 392  0047  2800     R  	jmp _L110
 392  0048              _L112:
 393  0048              #line 393 "G:\workspace\client\利仁电气\software\NCR\ncr\ncr_system.c"
 393  0048  3994        	snz [20].3
 393  0049  2800     R  	jmp _L112
 393  004A              _L114:
 394  004A              #line 394 "G:\workspace\client\利仁电气\software\NCR\ncr\ncr_system.c"
 394  004A  3894        	snz [20].1
 394  004B  2800     R  	jmp _L114
文件：ncr_system.c 编译器版本 HGASM 0202 页次15

 394  004C              _L116:
 395  004C              #line 395 "G:\workspace\client\利仁电气\software\NCR\ncr\ncr_system.c"
 395  004C  3914        	snz [20].2
 395  004D  2800     R  	jmp _L116
 395  004E              _L118:
 396  004E              #line 396 "G:\workspace\client\利仁电气\software\NCR\ncr\ncr_system.c"
 396  004E  3814        	snz [20].0
 396  004F  2800     R  	jmp _L118
 397  0050              #line 397 "G:\workspace\client\利仁电气\software\NCR\ncr\ncr_system.c"
 397  0050  0FE8        	mov a,-24
 397  0051  0080     R  	mov _delay_2[0],a
 397  0052  0F03        	mov a,3
 397  0053  0080     R  	mov _delay_2[1],a
 397  0054  1F00     R  	clr _delay_2[2]
 397  0055  1F00     R  	clr _delay_2[3]
 397  0056  2000     R  	call _delay
 397  0057  0003        	ret
 397  0058              _holdLow endp
 397  0058              #line 397 "G:\workspace\client\利仁电气\software\NCR\ncr\ncr_system.c"
 397  0058              #pragma debug scope 1 1
 397  0058              public _hold30loop
 397  0058              #pragma debug scope 13 1
 249  0058              #line 249 "G:\workspace\client\利仁电气\software\NCR\ncr\ncr_system.c"
 249  0000              _hold30loop .section 'code'
 249  0000              _hold30loop proc
 249  0000  0003[           local _hold30loop_2 db 3 dup(?)	; 0,3
            00
            ]
 249  0003              #pragma debug variable 8 13 _hold30loop_2+2 "keyFlag"
 249  0003              #pragma debug variable 12 13 _hold30loop_2+0 "holdTime"
 254  0003              #line 254 "G:\workspace\client\利仁电气\software\NCR\ncr\ncr_system.c"
 254  0000  36A8        	clr [40].5
 253  0001              #line 253 "G:\workspace\client\利仁电气\software\NCR\ncr\ncr_system.c"
 253  0001  1F00     R  	clr _hold30loop_2[0]
 253  0002  1F00     R  	clr _hold30loop_2[1]
 253  0003              _L146:
 256  0003              #line 256 "G:\workspace\client\利仁电气\software\NCR\ncr\ncr_system.c"
 256  0003  3E94        	sz [20].5
 256  0004  2800     R  	jmp _L142
 256  0005  3E14        	sz [20].4
 256  0006  2800     R  	jmp _L142
 256  0007  3C94        	sz [20].1
 256  0008  2800     R  	jmp _L142
 256  0009  3D14        	sz [20].2
 256  000A  2800     R  	jmp _L142
 256  000B  3814        	snz [20].0
 256  000C  2800     R  	jmp _L143
 256  000D              _L142:
 259  000D              #line 259 "G:\workspace\client\利仁电气\software\NCR\ncr\ncr_system.c"
 259  000D  0700     R  	mov a,_hold30loop_2[0]
 259  000E  0C65        	xor a,101
 259  000F  0500     R  	or a,_hold30loop_2[1]
 259  0010  3D0A        	sz z
 259  0011  2800     R  	jmp _L143
 263  0012              #line 263 "G:\workspace\client\利仁电气\software\NCR\ncr\ncr_system.c"
 263  0012  0700     R  	mov a,_hold30loop_2[0]
 263  0013  0500     R  	or a,_hold30loop_2[1]
 263  0014  390A        	snz z
 263  0015  2800     R  	jmp _L144
 264  0016              #line 264 "G:\workspace\client\利仁电气\software\NCR\ncr\ncr_system.c"
文件：ncr_system.c 编译器版本 HGASM 0202 页次16

 264  0016  3428        	clr [40].0
 265  0017              #line 265 "G:\workspace\client\利仁电气\software\NCR\ncr\ncr_system.c"
 265  0017  30B5        	set [53].1
 266  0018              #line 266 "G:\workspace\client\利仁电气\software\NCR\ncr\ncr_system.c"
 266  0018  0F02        	mov a,2
 266  0019  2000     R  	call _toneMode
 266  001A  2800     R  	jmp _L145
 266  001B              _L144:
 268  001B              #line 268 "G:\workspace\client\利仁电气\software\NCR\ncr\ncr_system.c"
 268  001B  0F00        	mov a,0
 268  001C  2000     R  	call _toneMode
 269  001D              #line 269 "G:\workspace\client\利仁电气\software\NCR\ncr\ncr_system.c"
 269  001D  34B5        	clr [53].1
 270  001E              #line 270 "G:\workspace\client\利仁电气\software\NCR\ncr\ncr_system.c"
 270  001E  3028        	set [40].0
 270  001F              _L145:
 273  001F              #line 273 "G:\workspace\client\利仁电气\software\NCR\ncr\ncr_system.c"
 273  001F  1480     R  	inc _hold30loop_2[0]
 273  0020  3D0A        	sz z
 273  0021  1480     R  	inc _hold30loop_2[1]
 274  0022              #line 274 "G:\workspace\client\利仁电气\software\NCR\ncr\ncr_system.c"
 274  0022  0F32        	mov a,50
 274  0023  0080     R  	mov _delay_2[0],a
 274  0024  1F00     R  	clr _delay_2[1]
 274  0025  1F00     R  	clr _delay_2[2]
 274  0026  1F00     R  	clr _delay_2[3]
 274  0027  2000     R  	call _delay
 275  0028              #line 275 "G:\workspace\client\利仁电气\software\NCR\ncr\ncr_system.c"
 275  0028  2800     R  	jmp _L146
 275  0029              _L143:
 276  0029              #line 276 "G:\workspace\client\利仁电气\software\NCR\ncr\ncr_system.c"
 276  0029  0FC8        	mov a,-56
 276  002A  0080     R  	mov _delay_2[0],a
 276  002B  1F00     R  	clr _delay_2[1]
 276  002C  1F00     R  	clr _delay_2[2]
 276  002D  1F00     R  	clr _delay_2[3]
 276  002E  2000     R  	call _delay
 277  002F              #line 277 "G:\workspace\client\利仁电气\software\NCR\ncr\ncr_system.c"
 277  002F  32A8        	set [40].5
 281  0030              #line 281 "G:\workspace\client\利仁电气\software\NCR\ncr\ncr_system.c"
 281  0030  1920        	rra [32]
 281  0031  0E7F        	and a,07fh
 281  0032  0080     E  	mov ra,a
 281  0033  0F01        	mov a,1
 281  0034  0480     E  	xorm a,ra
 281  0035  0700     E  	mov a,ra
 281  0036  0E01        	and a,1
 281  0037  0080     R  	mov _hold30loop_2[2],a
 281  0038  0FBA        	mov a,-70
 281  0039  0080     R  	mov _hold30loop_2[0],a
 281  003A  0F0B        	mov a,11
 281  003B  0080     R  	mov _hold30loop_2[1],a
 281  003C              _L154:
 283  003C              #line 283 "G:\workspace\client\利仁电气\software\NCR\ncr\ncr_system.c"
 283  003C  1F00     E  	clr ra
 283  003D  3E94        	sz [20].5
 283  003E  1480     E  	inc ra
 286  003F              #line 286 "G:\workspace\client\利仁电气\software\NCR\ncr\ncr_system.c"
 286  003F  3A14        	snz [20].4
 286  0040  2800     R  	jmp _L147
文件：ncr_system.c 编译器版本 HGASM 0202 页次17

 287  0041              #line 287 "G:\workspace\client\利仁电气\software\NCR\ncr\ncr_system.c"
 287  0041  1480     E  	inc ra
 287  0042              _L147:
 289  0042              #line 289 "G:\workspace\client\利仁电气\software\NCR\ncr\ncr_system.c"
 289  0042  3994        	snz [20].3
 289  0043  2800     R  	jmp _L148
 290  0044              #line 290 "G:\workspace\client\利仁电气\software\NCR\ncr\ncr_system.c"
 290  0044  1480     E  	inc ra
 290  0045              _L148:
 292  0045              #line 292 "G:\workspace\client\利仁电气\software\NCR\ncr\ncr_system.c"
 292  0045  3894        	snz [20].1
 292  0046  2800     R  	jmp _L149
 293  0047              #line 293 "G:\workspace\client\利仁电气\software\NCR\ncr\ncr_system.c"
 293  0047  1480     E  	inc ra
 293  0048              _L149:
 295  0048              #line 295 "G:\workspace\client\利仁电气\software\NCR\ncr\ncr_system.c"
 295  0048  3914        	snz [20].2
 295  0049  2800     R  	jmp _L150
 296  004A              #line 296 "G:\workspace\client\利仁电气\software\NCR\ncr\ncr_system.c"
 296  004A  1480     E  	inc ra
 296  004B              _L150:
 298  004B              #line 298 "G:\workspace\client\利仁电气\software\NCR\ncr\ncr_system.c"
 298  004B  3814        	snz [20].0
 298  004C  2800     R  	jmp _L151
 299  004D              #line 299 "G:\workspace\client\利仁电气\software\NCR\ncr\ncr_system.c"
 299  004D  1480     E  	inc ra
 299  004E              _L151:
 302  004E              #line 302 "G:\workspace\client\利仁电气\software\NCR\ncr\ncr_system.c"
 302  004E  0F01        	mov a,1
 302  004F  0200     E  	sub a,ra
 302  0050  380A        	snz c
 302  0051  2800     R  	jmp _L152
 302  0052  0FFF        	mov a,255
 302  0053  0380     R  	addm a,_hold30loop_2[0]
 302  0054  0FFF        	mov a,255
 302  0055  1380     R  	adcm a,_hold30loop_2[1]
 307  0056              #line 307 "G:\workspace\client\利仁电气\software\NCR\ncr\ncr_system.c"
 307  0056  0700     R  	mov a,_hold30loop_2[0]
 307  0057  0500     R  	or a,_hold30loop_2[1]
 307  0058  3D0A        	sz z
 307  0059  2800     R  	jmp _L152
 311  005A              #line 311 "G:\workspace\client\利仁电气\software\NCR\ncr\ncr_system.c"
 311  005A  3CA0        	sz [32].1
 311  005B  2800     R  	jmp _L169
 312  005C              #line 312 "G:\workspace\client\利仁电气\software\NCR\ncr\ncr_system.c"
 312  005C  2000     R  	call _keysPushWaring
 313  005D              #line 313 "G:\workspace\client\利仁电气\software\NCR\ncr\ncr_system.c"
 313  005D  1E00     R  	snz _hold30loop_2[2]
 313  005E  2800     R  	jmp _L152
 313  005F  0F01        	mov a,1
 313  0060  0080     R  	mov _hold30loop_2[2],a
 313  0061  2800     R  	jmp _L153
 313  0062              _L169:
 316  0062              #line 316 "G:\workspace\client\利仁电气\software\NCR\ncr\ncr_system.c"
 316  0062  1F00     R  	clr _hold30loop_2[2]
 316  0063              _L153:
 319  0063              #line 319 "G:\workspace\client\利仁电气\software\NCR\ncr\ncr_system.c"
 319  0063  0F64        	mov a,100
 319  0064  0080     R  	mov _delay_2[0],a
 319  0065  1F00     R  	clr _delay_2[1]
文件：ncr_system.c 编译器版本 HGASM 0202 页次18

 319  0066  1F00     R  	clr _delay_2[2]
 319  0067  1F00     R  	clr _delay_2[3]
 319  0068  2000     R  	call _delay
 320  0069              #line 320 "G:\workspace\client\利仁电气\software\NCR\ncr\ncr_system.c"
 320  0069  2800     R  	jmp _L154
 320  006A              _L152:
 323  006A              #line 323 "G:\workspace\client\利仁电气\software\NCR\ncr\ncr_system.c"
 323  006A  36A8        	clr [40].5
 324  006B              #line 324 "G:\workspace\client\利仁电气\software\NCR\ncr\ncr_system.c"
 324  006B  0FC8        	mov a,-56
 324  006C  0080     R  	mov _delay_2[0],a
 324  006D  1F00     R  	clr _delay_2[1]
 324  006E  1F00     R  	clr _delay_2[2]
 324  006F  1F00     R  	clr _delay_2[3]
 324  0070  2000     R  	call _delay
 325  0071              #line 325 "G:\workspace\client\利仁电气\software\NCR\ncr\ncr_system.c"
 325  0071  32A8        	set [40].5
 325  0072              _L156:
 327  0072              #line 327 "G:\workspace\client\利仁电气\software\NCR\ncr\ncr_system.c"
 327  0072  38A0        	snz [32].1
 327  0073  2800     R  	jmp _L156
 327  0074              _L158:
 328  0074              #line 328 "G:\workspace\client\利仁电气\software\NCR\ncr\ncr_system.c"
 328  0074  3A94        	snz [20].5
 328  0075  2800     R  	jmp _L158
 328  0076              _L160:
 329  0076              #line 329 "G:\workspace\client\利仁电气\software\NCR\ncr\ncr_system.c"
 329  0076  3A14        	snz [20].4
 329  0077  2800     R  	jmp _L160
 329  0078              _L162:
 330  0078              #line 330 "G:\workspace\client\利仁电气\software\NCR\ncr\ncr_system.c"
 330  0078  3994        	snz [20].3
 330  0079  2800     R  	jmp _L162
 330  007A              _L164:
 331  007A              #line 331 "G:\workspace\client\利仁电气\software\NCR\ncr\ncr_system.c"
 331  007A  3894        	snz [20].1
 331  007B  2800     R  	jmp _L164
 331  007C              _L166:
 332  007C              #line 332 "G:\workspace\client\利仁电气\software\NCR\ncr\ncr_system.c"
 332  007C  3914        	snz [20].2
 332  007D  2800     R  	jmp _L166
 332  007E              _L168:
 333  007E              #line 333 "G:\workspace\client\利仁电气\software\NCR\ncr\ncr_system.c"
 333  007E  3814        	snz [20].0
 333  007F  2800     R  	jmp _L168
 334  0080              #line 334 "G:\workspace\client\利仁电气\software\NCR\ncr\ncr_system.c"
 334  0080  0FE8        	mov a,-24
 334  0081  0080     R  	mov _delay_2[0],a
 334  0082  0F03        	mov a,3
 334  0083  0080     R  	mov _delay_2[1],a
 334  0084  1F00     R  	clr _delay_2[2]
 334  0085  1F00     R  	clr _delay_2[3]
 334  0086  2000     R  	call _delay
 334  0087  0003        	ret
 334  0088              _hold30loop endp
 334  0088              #line 334 "G:\workspace\client\利仁电气\software\NCR\ncr\ncr_system.c"
 334  0088              #pragma debug scope 1 1
 334  0088              public _beep
 334  0088              #pragma debug scope 14 1
 478  0088              #line 478 "G:\workspace\client\利仁电气\software\NCR\ncr\ncr_system.c"
文件：ncr_system.c 编译器版本 HGASM 0202 页次19

 478  0000              _beep .section 'code'
 478  0000              _beep proc
 478  0000              public _beep_2
 478  0000  0003[           local _beep_2 db 3 dup(?)	; 2,1
            00
            ]
 478  0000  0080     E  	mov ra,a
 478  0001              #pragma debug variable 8 14 _beep_2+2 "mode"
 478  0001              #pragma debug variable 12 14 _beep_2+0 "time"
 479  0001              #line 479 "G:\workspace\client\利仁电气\software\NCR\ncr\ncr_system.c"
 479  0001  0700     E  	mov a,ra
 479  0002  2000     R  	call _toneMode
 480  0003              #line 480 "G:\workspace\client\利仁电气\software\NCR\ncr\ncr_system.c"
 480  0003  0700     R  	mov a,_beep_2[0]
 480  0004  0080     R  	mov _delay_2[0],a
 480  0005  0700     R  	mov a,_beep_2[1]
 480  0006  0080     R  	mov _delay_2[1],a
 480  0007  1F00     R  	clr _delay_2[2]
 480  0008  1F00     R  	clr _delay_2[3]
 480  0009  2000     R  	call _delay
 481  000A              #line 481 "G:\workspace\client\利仁电气\software\NCR\ncr\ncr_system.c"
 481  000A  0F00        	mov a,0
 481  000B  2000     R  	call _toneMode
 481  000C  0003        	ret
 481  000D              _beep endp
 481  000D              #line 481 "G:\workspace\client\利仁电气\software\NCR\ncr\ncr_system.c"
 481  000D              #pragma debug scope 1 1
 481  000D              public _doBee
 481  000D              #pragma debug scope 15 1
 484  000D              #line 484 "G:\workspace\client\利仁电气\software\NCR\ncr\ncr_system.c"
 484  0000              _doBee .section 'code'
 484  0000              _doBee proc
 484  0000              public _doBee_2
 484  0000  0003[           local _doBee_2 db 3 dup(?)	; 2,1
            00
            ]
 484  0000  0080     E  	mov ra,a
 484  0001  0080     R  	mov _doBee_2[2],a
 484  0002              #pragma debug variable 8 15 _doBee_2+2 "mode"
 484  0002              #pragma debug pointer 42 12 15
 484  0002              #pragma debug pointer 42 12 15
 484  0002              #pragma debug variable 42 15 _doBee_2+0 "beeIndex"
 485  0002              #line 485 "G:\workspace\client\利仁电气\software\NCR\ncr\ncr_system.c"
 485  0002  0700     E  	mov a,ra
 485  0003  0A00        	sub a,0
 485  0004  3D0A        	sz z
 485  0005  2800     R  	jmp _L200
 485  0006  0A01        	sub a,(1)-(0)
 485  0007  3D0A        	sz z
 485  0008  2800     R  	jmp _L201
 485  0009              #line 485 "G:\workspace\client\利仁电气\software\NCR\ncr\ncr_system.c"
 485  0009  0700     E  	mov a,ra
 485  000A  0A02        	sub a,2
 485  000B  3D0A        	sz z
 485  000C  2800     R  	jmp _L202
 485  000D  0A01        	sub a,(3)-(2)
 485  000E  3D0A        	sz z
 485  000F  2800     R  	jmp _L203
 485  0010  0700     E  	mov a,ra
 485  0011  0A04        	sub a,4
文件：ncr_system.c 编译器版本 HGASM 0202 页次20

 485  0012  390A        	snz z
 485  0013  2800     R  	jmp _L198
 485  0014  2800     R  	jmp _L219
 485  0015              _L200:
 487  0015              #line 487 "G:\workspace\client\利仁电气\software\NCR\ncr\ncr_system.c"
 487  0015  0700     R  	mov a,_doBee_2[0]
 487  0016  0083        	mov mp,a
 487  0017  0700     R  	mov a,_doBee_2[1]
 487  0018  0084        	mov sbp,a
 487  0019  2000     E  	call _Crom2Prom
 487  001A  0080     E  	mov rb,a
 487  001B  2000     E  	call _Crom2PromNext
 487  001C  0080     E  	mov rc,a
 487  001D  0F04        	mov a,4
 487  001E  0200     E  	sub a,rb
 487  001F  0F00        	mov a,0
 487  0020  1200     E  	sbc a,rc
 487  0021  380A        	snz c
 487  0022  2800     R  	jmp _L205
 487  0023              _L208:
 488  0023              #line 488 "G:\workspace\client\利仁电气\software\NCR\ncr\ncr_system.c"
 488  0023  0F06        	mov a,6
 488  0024  2800     R  	jmp _L218
 488  0025              _L205:
 489  0025              #line 489 "G:\workspace\client\利仁电气\software\NCR\ncr\ncr_system.c"
 489  0025  0F09        	mov a,9
 489  0026  0200     E  	sub a,rb
 489  0027  0F00        	mov a,0
 489  0028  1200     E  	sbc a,rc
 489  0029  380A        	snz c
 489  002A  2800     R  	jmp _L206
 489  002B              _L209:
 490  002B              #line 490 "G:\workspace\client\利仁电气\software\NCR\ncr\ncr_system.c"
 490  002B  0F0A        	mov a,10
 490  002C  2800     R  	jmp _L218
 490  002D              _L202:
 513  002D              #line 513 "G:\workspace\client\利仁电气\software\NCR\ncr\ncr_system.c"
 513  002D  0700     R  	mov a,_doBee_2[0]
 513  002E  0083        	mov mp,a
 513  002F  0700     R  	mov a,_doBee_2[1]
 513  0030  0084        	mov sbp,a
 513  0031  2000     E  	call _Crom2Prom
 513  0032  0080     E  	mov rb,a
 513  0033  2000     E  	call _Crom2PromNext
 513  0034  0080     E  	mov rc,a
 513  0035  0F04        	mov a,4
 513  0036  0200     E  	sub a,rb
 513  0037  0F00        	mov a,0
 513  0038  1200     E  	sbc a,rc
 513  0039  3C0A        	sz c
 513  003A  2800     R  	jmp _L208
 515  003B              #line 515 "G:\workspace\client\利仁电气\software\NCR\ncr\ncr_system.c"
 515  003B  0F09        	mov a,9
 515  003C  0200     E  	sub a,rb
 515  003D  0F00        	mov a,0
 515  003E  1200     E  	sbc a,rc
 515  003F  3C0A        	sz c
 515  0040  2800     R  	jmp _L212
 515  0041              _L206:
 491  0041              #line 491 "G:\workspace\client\利仁电气\software\NCR\ncr\ncr_system.c"
文件：ncr_system.c 编译器版本 HGASM 0202 页次21

 491  0041  0F18        	mov a,24
 491  0042  0200     E  	sub a,rb
 491  0043  0F00        	mov a,0
 491  0044  1200     E  	sbc a,rc
 491  0045  380A        	snz c
 491  0046  2800     R  	jmp _L207
 491  0047              _L210:
 492  0047              #line 492 "G:\workspace\client\利仁电气\software\NCR\ncr\ncr_system.c"
 492  0047  0F00        	mov a,0
 492  0048  2800     R  	jmp _L218
 492  0049              _L201:
 499  0049              #line 499 "G:\workspace\client\利仁电气\software\NCR\ncr\ncr_system.c"
 499  0049  0700     R  	mov a,_doBee_2[0]
 499  004A  0083        	mov mp,a
 499  004B  0700     R  	mov a,_doBee_2[1]
 499  004C  0084        	mov sbp,a
 499  004D  2000     E  	call _Crom2Prom
 499  004E  0080     E  	mov rb,a
 499  004F  2000     E  	call _Crom2PromNext
 499  0050  0080     E  	mov rc,a
 499  0051  0F04        	mov a,4
 499  0052  0200     E  	sub a,rb
 499  0053  0F00        	mov a,0
 499  0054  1200     E  	sbc a,rc
 499  0055  3C0A        	sz c
 499  0056  2800     R  	jmp _L208
 501  0057              #line 501 "G:\workspace\client\利仁电气\software\NCR\ncr\ncr_system.c"
 501  0057  0F09        	mov a,9
 501  0058  0200     E  	sub a,rb
 501  0059  0F00        	mov a,0
 501  005A  1200     E  	sbc a,rc
 501  005B  3C0A        	sz c
 501  005C  2800     R  	jmp _L209
 503  005D              #line 503 "G:\workspace\client\利仁电气\software\NCR\ncr\ncr_system.c"
 503  005D  0F0E        	mov a,14
 503  005E  0200     E  	sub a,rb
 503  005F  0F00        	mov a,0
 503  0060  1200     E  	sbc a,rc
 503  0061  3C0A        	sz c
 503  0062  2800     R  	jmp _L208
 505  0063              #line 505 "G:\workspace\client\利仁电气\software\NCR\ncr\ncr_system.c"
 505  0063  0F1D        	mov a,29
 505  0064  0200     E  	sub a,rb
 505  0065  0F00        	mov a,0
 505  0066  1200     E  	sbc a,rc
 505  0067  3C0A        	sz c
 505  0068  2800     R  	jmp _L210
 505  0069              _L207:
 494  0069              #line 494 "G:\workspace\client\利仁电气\software\NCR\ncr\ncr_system.c"
 494  0069  0700     R  	mov a,_doBee_2[0]
 494  006A  0083        	mov mp,a
 494  006B  0700     R  	mov a,_doBee_2[1]
 494  006C  0084        	mov sbp,a
 494  006D  1F02        	clr ir
 494  006E  1483        	inc mp
 494  006F  1F02        	clr ir
 494  0070  2800     R  	jmp _L198
 494  0071              _L203:
 525  0071              #line 525 "G:\workspace\client\利仁电气\software\NCR\ncr\ncr_system.c"
 525  0071  0700     R  	mov a,_doBee_2[0]
文件：ncr_system.c 编译器版本 HGASM 0202 页次22

 525  0072  0083        	mov mp,a
 525  0073  0700     R  	mov a,_doBee_2[1]
 525  0074  0084        	mov sbp,a
 525  0075  2000     E  	call _Crom2Prom
 525  0076  0080     E  	mov rb,a
 525  0077  2000     E  	call _Crom2PromNext
 525  0078  0080     E  	mov rc,a
 525  0079  0F04        	mov a,4
 525  007A  0200     E  	sub a,rb
 525  007B  0F00        	mov a,0
 525  007C  1200     E  	sbc a,rc
 525  007D  380A        	snz c
 525  007E  2800     R  	jmp _L220
 525  007F              _L212:
 516  007F              #line 516 "G:\workspace\client\利仁电气\software\NCR\ncr\ncr_system.c"
 516  007F  0F0B        	mov a,11
 516  0080  2800     R  	jmp _L218
 516  0081              _L220:
 527  0081              #line 527 "G:\workspace\client\利仁电气\software\NCR\ncr\ncr_system.c"
 527  0081  0F09        	mov a,9
 527  0082  0200     E  	sub a,rb
 527  0083  0F00        	mov a,0
 527  0084  1200     E  	sbc a,rc
 527  0085  3C0A        	sz c
 527  0086  2800     R  	jmp _L209
 529  0087              #line 529 "G:\workspace\client\利仁电气\software\NCR\ncr\ncr_system.c"
 529  0087  0F0E        	mov a,14
 529  0088  0200     E  	sub a,rb
 529  0089  0F00        	mov a,0
 529  008A  1200     E  	sbc a,rc
 529  008B  380A        	snz c
 529  008C  2800     R  	jmp _L213
 529  008D              _L215:
 530  008D              #line 530 "G:\workspace\client\利仁电气\software\NCR\ncr\ncr_system.c"
 530  008D  0F0C        	mov a,12
 530  008E  2800     R  	jmp _L218
 530  008F              _L213:
 531  008F              #line 531 "G:\workspace\client\利仁电气\software\NCR\ncr\ncr_system.c"
 531  008F  0F13        	mov a,19
 531  0090  0200     E  	sub a,rb
 531  0091  0F00        	mov a,0
 531  0092  1200     E  	sbc a,rc
 531  0093  380A        	snz c
 531  0094  2800     R  	jmp _L214
 531  0095              _L216:
 532  0095              #line 532 "G:\workspace\client\利仁电气\software\NCR\ncr\ncr_system.c"
 532  0095  0F08        	mov a,8
 532  0096              _L218:
 532  0096  2000     R  	call _toneMode
 532  0097  2800     R  	jmp _L198
 532  0098              _L214:
 533  0098              #line 533 "G:\workspace\client\利仁电气\software\NCR\ncr\ncr_system.c"
 533  0098  0F22        	mov a,34
 533  0099  0200     E  	sub a,rb
 533  009A  0F00        	mov a,0
 533  009B  1200     E  	sbc a,rc
 533  009C  3C0A        	sz c
 533  009D  2800     R  	jmp _L210
 535  009E              #line 535 "G:\workspace\client\利仁电气\software\NCR\ncr\ncr_system.c"
 535  009E  0F27        	mov a,39
文件：ncr_system.c 编译器版本 HGASM 0202 页次23

 535  009F  0200     E  	sub a,rb
 535  00A0  0F00        	mov a,0
 535  00A1  1200     E  	sbc a,rc
 535  00A2  3C0A        	sz c
 535  00A3  2800     R  	jmp _L212
 537  00A4              #line 537 "G:\workspace\client\利仁电气\software\NCR\ncr\ncr_system.c"
 537  00A4  0F2C        	mov a,44
 537  00A5  0200     E  	sub a,rb
 537  00A6  0F00        	mov a,0
 537  00A7  1200     E  	sbc a,rc
 537  00A8  3C0A        	sz c
 537  00A9  2800     R  	jmp _L209
 539  00AA              #line 539 "G:\workspace\client\利仁电气\software\NCR\ncr\ncr_system.c"
 539  00AA  0F31        	mov a,49
 539  00AB  0200     E  	sub a,rb
 539  00AC  0F00        	mov a,0
 539  00AD  1200     E  	sbc a,rc
 539  00AE  3C0A        	sz c
 539  00AF  2800     R  	jmp _L215
 541  00B0              #line 541 "G:\workspace\client\利仁电气\software\NCR\ncr\ncr_system.c"
 541  00B0  0F36        	mov a,54
 541  00B1  0200     E  	sub a,rb
 541  00B2  0F00        	mov a,0
 541  00B3  1200     E  	sbc a,rc
 541  00B4  3C0A        	sz c
 541  00B5  2800     R  	jmp _L216
 543  00B6              #line 543 "G:\workspace\client\利仁电气\software\NCR\ncr\ncr_system.c"
 543  00B6  0F5E        	mov a,94
 543  00B7  0200     E  	sub a,rb
 543  00B8  0F00        	mov a,0
 543  00B9  1200     E  	sbc a,rc
 543  00BA  380A        	snz c
 543  00BB  2800     R  	jmp _L207
 543  00BC  2800     R  	jmp _L210
 543  00BD              _L219:
 551  00BD              #line 551 "G:\workspace\client\利仁电气\software\NCR\ncr\ncr_system.c"
 551  00BD  0700     R  	mov a,_doBee_2[0]
 551  00BE  0083        	mov mp,a
 551  00BF  0700     R  	mov a,_doBee_2[1]
 551  00C0  0084        	mov sbp,a
 551  00C1  2000     E  	call _Crom2Prom
 551  00C2  0080     E  	mov rb,a
 551  00C3  2000     E  	call _Crom2PromNext
 551  00C4  0080     E  	mov rc,a
 551  00C5  0F04        	mov a,4
 551  00C6  0200     E  	sub a,rb
 551  00C7  0F00        	mov a,0
 551  00C8  1200     E  	sbc a,rc
 551  00C9  3C0A        	sz c
 551  00CA  2800     R  	jmp _L216
 553  00CB              #line 553 "G:\workspace\client\利仁电气\software\NCR\ncr\ncr_system.c"
 553  00CB  0F09        	mov a,9
 553  00CC  0200     E  	sub a,rb
 553  00CD  0F00        	mov a,0
 553  00CE  1200     E  	sbc a,rc
 553  00CF  3C0A        	sz c
 553  00D0  2800     R  	jmp _L212
 555  00D1              #line 555 "G:\workspace\client\利仁电气\software\NCR\ncr\ncr_system.c"
 555  00D1  0F0E        	mov a,14
 555  00D2  0200     E  	sub a,rb
文件：ncr_system.c 编译器版本 HGASM 0202 页次24

 555  00D3  0F00        	mov a,0
 555  00D4  1200     E  	sbc a,rc
 555  00D5  3C0A        	sz c
 555  00D6  2800     R  	jmp _L216
 557  00D7              #line 557 "G:\workspace\client\利仁电气\software\NCR\ncr\ncr_system.c"
 557  00D7  0F1D        	mov a,29
 557  00D8  0200     E  	sub a,rb
 557  00D9  0F00        	mov a,0
 557  00DA  1200     E  	sbc a,rc
 557  00DB  3C0A        	sz c
 557  00DC  2800     R  	jmp _L210
 559  00DD              #line 559 "G:\workspace\client\利仁电气\software\NCR\ncr\ncr_system.c"
 559  00DD  0F22        	mov a,34
 559  00DE  0200     E  	sub a,rb
 559  00DF  0F00        	mov a,0
 559  00E0  1200     E  	sbc a,rc
 559  00E1  3C0A        	sz c
 559  00E2  2800     R  	jmp _L216
 561  00E3              #line 561 "G:\workspace\client\利仁电气\software\NCR\ncr\ncr_system.c"
 561  00E3  0F27        	mov a,39
 561  00E4  0200     E  	sub a,rb
 561  00E5  0F00        	mov a,0
 561  00E6  1200     E  	sbc a,rc
 561  00E7  3C0A        	sz c
 561  00E8  2800     R  	jmp _L212
 563  00E9              #line 563 "G:\workspace\client\利仁电气\software\NCR\ncr\ncr_system.c"
 563  00E9  0F2C        	mov a,44
 563  00EA  0200     E  	sub a,rb
 563  00EB  0F00        	mov a,0
 563  00EC  1200     E  	sbc a,rc
 563  00ED  3C0A        	sz c
 563  00EE  2800     R  	jmp _L216
 565  00EF              #line 565 "G:\workspace\client\利仁电气\software\NCR\ncr\ncr_system.c"
 565  00EF  0F4F        	mov a,79
 565  00F0  0200     E  	sub a,rb
 565  00F1  0F00        	mov a,0
 565  00F2  1200     E  	sbc a,rc
 565  00F3  380A        	snz c
 565  00F4  2800     R  	jmp _L207
 565  00F5  2800     R  	jmp _L210
 565  00F6              _L198:
 565  00F6  0003        	ret
 565  00F7              _doBee endp
 565  00F7              #line 565 "G:\workspace\client\利仁电气\software\NCR\ncr\ncr_system.c"
 565  00F7              #pragma debug scope 1 1
 565  00F7              ___eea equ [65]
 565  00F7              ___mp1l equ [3]
 565  00F7              ___mp1h equ [4]
 565  00F7              ___eec equ [320]
 565  00F7              ___eed equ [66]
 565  00F7              public _zh_memoryReadByte
 565  00F7              #pragma debug scope 16 1
 828  00F7              #line 828 "G:\workspace\client\利仁电气\software\NCR\ncr\ncr_system.c"
 828  0000              _zh_memoryReadByte .section 'code'
 828  0000              _zh_memoryReadByte proc
 828  0000  00              local _zh_memoryReadByte_2 db 1 dup(?)	; 0,1
 828  0000  0080     R  	mov _zh_memoryReadByte_2[0],a
 828  0001              #pragma debug variable 8 16 _zh_memoryReadByte_2+0 "addr"
 829  0001              #line 829 "G:\workspace\client\利仁电气\software\NCR\ncr\ncr_system.c"
 829  0001  3411        	clr [17].0
文件：ncr_system.c 编译器版本 HGASM 0202 页次25

 830  0002              #line 830 "G:\workspace\client\利仁电气\software\NCR\ncr\ncr_system.c"
 830  0002  0700     R  	mov a,_zh_memoryReadByte_2[0]
 830  0003  00C1        	mov [65],a
 832  0004              #line 832 "G:\workspace\client\利仁电气\software\NCR\ncr\ncr_system.c"
 832  0004  0F40        	mov a,64
 832  0005  0083        	mov [3],a
 833  0006              #line 833 "G:\workspace\client\利仁电气\software\NCR\ncr\ncr_system.c"
 833  0006  0F01        	mov a,1
 833  0007  0084        	mov [4],a
 834  0008              #line 834 "G:\workspace\client\利仁电气\software\NCR\ncr\ncr_system.c"
 834  0008  B0C0 0001   	lset [320].1
 835  000A              #line 835 "G:\workspace\client\利仁电气\software\NCR\ncr\ncr_system.c"
 835  000A  B040 0001   	lset [320].0
 835  000C              _L222:
 836  000C              #line 836 "G:\workspace\client\利仁电气\software\NCR\ncr\ncr_system.c"
 836  000C  B840 0001   	lsnz [320].0
 836  000E  2800     R  	jmp _L224
 837  000F              #line 837 "G:\workspace\client\利仁电气\software\NCR\ncr\ncr_system.c"
 837  000F              ;# 837 "G:\workspace\client\利仁电气\software\NCR\ncr\ncr_system.c" 1
 837  000F  0001        	clr wdt1
 838  0010              #line 838 "G:\workspace\client\利仁电气\software\NCR\ncr\ncr_system.c"
 838  0010              ;# 838 "G:\workspace\client\利仁电气\software\NCR\ncr\ncr_system.c" 1
 838  0010  0005        	clr wdt2
 839  0011              #line 839 "G:\workspace\client\利仁电气\software\NCR\ncr\ncr_system.c"
 839  0011              ;# 839 "G:\workspace\client\利仁电气\software\NCR\ncr\ncr_system.c" 1
 839  0011  0001        	clr wdt
 839  0012  2800     R  	jmp _L222
 839  0013              _L224:
 841  0013              #line 841 "G:\workspace\client\利仁电气\software\NCR\ncr\ncr_system.c"
 841  0013  1F04        	clr [4]
 842  0014              #line 842 "G:\workspace\client\利仁电气\software\NCR\ncr\ncr_system.c"
 842  0014  1F03        	clr [3]
 843  0015              #line 843 "G:\workspace\client\利仁电气\software\NCR\ncr\ncr_system.c"
 843  0015  9F40 0001   	lclr [320]
 845  0017              #line 845 "G:\workspace\client\利仁电气\software\NCR\ncr\ncr_system.c"
 845  0017  3011        	set [17].0
 846  0018              #line 846 "G:\workspace\client\利仁电气\software\NCR\ncr\ncr_system.c"
 846  0018  0742        	mov a,[66]
 846  0019  0080     E  	mov ra,a
 847  001A              #line 847 "G:\workspace\client\利仁电气\software\NCR\ncr\ncr_system.c"
 847  001A  0700     E  	mov a,ra
 847  001B  0003        	ret
 847  001C              _zh_memoryReadByte endp
 847  001C              #line 847 "G:\workspace\client\利仁电气\software\NCR\ncr\ncr_system.c"
 847  001C              #pragma debug scope 1 1
 847  001C              public _zh_memoryWriteByte
 847  001C              #pragma debug scope 17 1
 856  001C              #line 856 "G:\workspace\client\利仁电气\software\NCR\ncr\ncr_system.c"
 856  0000              _zh_memoryWriteByte .section 'code'
 856  0000              _zh_memoryWriteByte proc
 856  0000              public _zh_memoryWriteByte_2
 856  0000  0002[           local _zh_memoryWriteByte_2 db 2 dup(?)	; 1,1
            00
            ]
 856  0000  0080     R  	mov _zh_memoryWriteByte_2[1],a
 856  0001              #pragma debug variable 8 17 _zh_memoryWriteByte_2+1 "addr"
 856  0001              #pragma debug variable 8 17 _zh_memoryWriteByte_2+0 "data"
 857  0001              #line 857 "G:\workspace\client\利仁电气\software\NCR\ncr\ncr_system.c"
 857  0001  3411        	clr [17].0
 858  0002              #line 858 "G:\workspace\client\利仁电气\software\NCR\ncr\ncr_system.c"
文件：ncr_system.c 编译器版本 HGASM 0202 页次26

 858  0002  0700     R  	mov a,_zh_memoryWriteByte_2[1]
 858  0003  00C1        	mov [65],a
 859  0004              #line 859 "G:\workspace\client\利仁电气\software\NCR\ncr\ncr_system.c"
 859  0004  0700     R  	mov a,_zh_memoryWriteByte_2[0]
 859  0005  00C2        	mov [66],a
 861  0006              #line 861 "G:\workspace\client\利仁电气\software\NCR\ncr\ncr_system.c"
 861  0006  0F40        	mov a,64
 861  0007  0083        	mov [3],a
 862  0008              #line 862 "G:\workspace\client\利仁电气\software\NCR\ncr\ncr_system.c"
 862  0008  0F01        	mov a,1
 862  0009  0084        	mov [4],a
 863  000A              #line 863 "G:\workspace\client\利仁电气\software\NCR\ncr\ncr_system.c"
 863  000A  B1C0 0001   	lset [320].3
 864  000C              #line 864 "G:\workspace\client\利仁电气\software\NCR\ncr\ncr_system.c"
 864  000C  B140 0001   	lset [320].2
 864  000E              _L226:
 865  000E              #line 865 "G:\workspace\client\利仁电气\software\NCR\ncr\ncr_system.c"
 865  000E  B940 0001   	lsnz [320].2
 865  0010  2800     R  	jmp _L228
 866  0011              #line 866 "G:\workspace\client\利仁电气\software\NCR\ncr\ncr_system.c"
 866  0011              ;# 866 "G:\workspace\client\利仁电气\software\NCR\ncr\ncr_system.c" 1
 866  0011  0001        	clr wdt1
 867  0012              #line 867 "G:\workspace\client\利仁电气\software\NCR\ncr\ncr_system.c"
 867  0012              ;# 867 "G:\workspace\client\利仁电气\software\NCR\ncr\ncr_system.c" 1
 867  0012  0005        	clr wdt2
 868  0013              #line 868 "G:\workspace\client\利仁电气\software\NCR\ncr\ncr_system.c"
 868  0013              ;# 868 "G:\workspace\client\利仁电气\software\NCR\ncr\ncr_system.c" 1
 868  0013  0001        	clr wdt
 868  0014  2800     R  	jmp _L226
 868  0015              _L228:
 870  0015              #line 870 "G:\workspace\client\利仁电气\software\NCR\ncr\ncr_system.c"
 870  0015  9F40 0001   	lclr [320]
 872  0017              #line 872 "G:\workspace\client\利仁电气\software\NCR\ncr\ncr_system.c"
 872  0017  3011        	set [17].0
 872  0018  0003        	ret
 872  0019              _zh_memoryWriteByte endp
 872  0019              #line 872 "G:\workspace\client\利仁电气\software\NCR\ncr\ncr_system.c"
 872  0019              #pragma debug scope 1 1
 872  0019              public _waringEnable
 872  0000              @HCCINIT	.section 'data'
 411  0000              #line 411 "G:\workspace\client\利仁电气\software\NCR\ncr\ncr_system.c"
 411  0000              @HCCINIT_waringEnable .section 'data'
 411  0000              _waringEnable label byte
 411  0000              #pragma debug variable 8 1 _waringEnable "waringEnable"
 411  0000              	db 0
 411  0000              @ROMDATA_BASE .section inpage 'code'
 411  0000              	db 0
 411  0001              @HCCINIT_waringEnable .section 'data'
 411  0001              public _toneDelay
   8  0001              #line 8 "G:\workspace\client\利仁电气\software\NCR\ncr\ncr_system.c"
   8  0000              @HCCINIT_toneDelay .section 'data'
   8  0000              _toneDelay label byte
   8  0000              #pragma debug array 43 12 13 1
   8  0000              #pragma debug array 43 12 13 1
   8  0000              #pragma debug variable 43 1 _toneDelay "toneDelay"
   8  0000              	dw 0
   8  0001              @ROMDATA_BASE .section inpage 'code'
   8  0001  0000        	dc 0
   8  0002              @HCCINIT_toneDelay .section 'data'
   8  0002              	dw 455
文件：ncr_system.c 编译器版本 HGASM 0202 页次27

   8  0002              @ROMDATA_BASE .section inpage 'code'
   8  0002  01C7        	dc 455
   8  0004              @HCCINIT_toneDelay .section 'data'
   8  0004              	dw 357
   8  0003              @ROMDATA_BASE .section inpage 'code'
   8  0003  0165        	dc 357
   8  0006              @HCCINIT_toneDelay .section 'data'
   8  0006              	dw 303
   8  0004              @ROMDATA_BASE .section inpage 'code'
   8  0004  012F        	dc 303
   8  0008              @HCCINIT_toneDelay .section 'data'
   8  0008              	dw 263
   8  0005              @ROMDATA_BASE .section inpage 'code'
   8  0005  0107        	dc 263
   8  000A              @HCCINIT_toneDelay .section 'data'
   8  000A              	dw 1432
   8  0006              @ROMDATA_BASE .section inpage 'code'
   8  0006  0598        	dc 1432
   8  000C              @HCCINIT_toneDelay .section 'data'
   8  000C              	dw 1517
   8  0007              @ROMDATA_BASE .section inpage 'code'
   8  0007  05ED        	dc 1517
   8  000E              @HCCINIT_toneDelay .section 'data'
   8  000E              	dw 758
   8  0008              @ROMDATA_BASE .section inpage 'code'
   8  0008  02F6        	dc 758
   8  0010              @HCCINIT_toneDelay .section 'data'
   8  0010              	dw 851
   8  0009              @ROMDATA_BASE .section inpage 'code'
   8  0009  0353        	dc 851
   8  0012              @HCCINIT_toneDelay .section 'data'
   8  0012              	dw 637
   8  000A              @ROMDATA_BASE .section inpage 'code'
   8  000A  027D        	dc 637
   8  0014              @HCCINIT_toneDelay .section 'data'
   8  0014              	dw 1136
   8  000B              @ROMDATA_BASE .section inpage 'code'
   8  000B  0470        	dc 1136
   8  0016              @HCCINIT_toneDelay .section 'data'
   8  0016              	dw 1703
   8  000C              @ROMDATA_BASE .section inpage 'code'
   8  000C  06A7        	dc 1703
   8  0018              @HCCINIT_toneDelay .section 'data'
   8  0018              	dw 1276
   8  000D              @ROMDATA_BASE .section inpage 'code'
   8  000D  04FC        	dc 1276
   8  001A              @HCCINIT_toneDelay .section 'data'
   8  001A              #pragma debug variable 8 1 ___mp1l "__mp1l" 1
   8  001A              #pragma debug variable 8 1 ___mp1h "__mp1h" 1
   8  001A              #pragma debug struct_end
   8  001A              #pragma debug struct_end
   8  001A              #pragma debug union_end
   8  001A              #pragma debug union_end
   8  001A              #pragma debug variable 45 1 ___intc0 "__intc0" 1
   8  001A              #pragma debug struct_end
   8  001A              #pragma debug struct_end
   8  001A              #pragma debug union_end
   8  001A              #pragma debug union_end
   8  001A              #pragma debug variable 47 1 ___pa "__pa" 1
   8  001A              #pragma debug struct_end
文件：ncr_system.c 编译器版本 HGASM 0202 页次28

   8  001A              #pragma debug struct_end
   8  001A              #pragma debug union_end
   8  001A              #pragma debug union_end
   8  001A              #pragma debug variable 49 1 ___mfi0 "__mfi0" 1
   8  001A              #pragma debug struct_end
   8  001A              #pragma debug struct_end
   8  001A              #pragma debug union_end
   8  001A              #pragma debug union_end
   8  001A              #pragma debug variable 51 1 ___pb "__pb" 1
   8  001A              #pragma debug struct_end
   8  001A              #pragma debug struct_end
   8  001A              #pragma debug union_end
   8  001A              #pragma debug union_end
   8  001A              #pragma debug variable 53 1 ___pc "__pc" 1
   8  001A              #pragma debug struct_end
   8  001A              #pragma debug struct_end
   8  001A              #pragma debug union_end
   8  001A              #pragma debug union_end
   8  001A              #pragma debug variable 55 1 ___pd "__pd" 1
   8  001A              #pragma debug struct_end
   8  001A              #pragma debug struct_end
   8  001A              #pragma debug union_end
   8  001A              #pragma debug union_end
   8  001A              #pragma debug variable 57 1 ___eea "__eea" 1
   8  001A              #pragma debug variable 8 1 ___eed "__eed" 1
   8  001A              #pragma debug struct_end
   8  001A              #pragma debug struct_end
   8  001A              #pragma debug union_end
   8  001A              #pragma debug union_end
   8  001A              #pragma debug variable 59 1 ___ptmc0 "__ptmc0" 1
   8  001A              #pragma debug struct_end
   8  001A              #pragma debug struct_end
   8  001A              #pragma debug union_end
   8  001A              #pragma debug union_end
   8  001A              #pragma debug variable 61 1 ___ptmc1 "__ptmc1" 1
   8  001A              #pragma debug variable 8 1 ___ptmal "__ptmal" 1
   8  001A              #pragma debug variable 8 1 ___ptmah "__ptmah" 1
   8  001A              #pragma debug struct_end
   8  001A              #pragma debug struct_end
   8  001A              #pragma debug union_end
   8  001A              #pragma debug union_end
   8  001A              #pragma debug variable 63 1 ___eec "__eec" 1
   8  001A              extern _abs_2:byte
   8  001A              extern _abs:near
   8  001A              
   8  001A              ; 
   8  001A              ; Generated by holtek-gcc v3.19, Mon Oct 21 15:28:07 2019
   8  001A              ; Rebuild 115
   8  001A              ; end of file


        0 Errors, 0